L251 LINKER/LOCATER V4.66.93.0                                                          03/12/2024  22:09:15  PAGE 1


L251 LINKER/LOCATER V4.66.93.0, INVOKED BY:
D:\KEIL5\C251\BIN\L251.EXE .\Out_File\board.obj, .\Out_File\common.obj, .\Out_File\zf_adc.obj, .\Out_File\zf_delay.obj, 
>> .\Out_File\zf_eeprom.obj, .\Out_File\zf_exti.obj, .\Out_File\zf_gpio.obj, .\Out_File\zf_nvic.obj, .\Out_File\zf_pwm.o
>> bj, .\Out_File\zf_spi.obj, .\Out_File\zf_tim.obj, .\Out_File\zf_uart.obj, .\Out_File\zf_fifo.obj, .\Out_File\SEEKFREE
>> _18TFT.obj, .\Out_File\SEEKFREE_BLUETOOTH_CH9141.obj, ..\..\Libraries\seekfree_peripheral\SEEKFREE_CONFIG.LIB, .\Out_
>> File\SEEKFREE_DL1A.obj, .\Out_File\SEEKFREE_DL1B.obj, .\Out_File\SEEKFREE_FONT.obj, .\Out_File\SEEKFREE_ICM20602.obj,
>>  .\Out_File\SEEKFREE_IMU660RA.obj, .\Out_File\SEEKFREE_IMU963RA.obj, .\Out_File\SEEKFREE_IPS114_SPI.obj, .\Out_File\S
>> EEKFREE_MPU6050.obj, .\Out_File\SEEKFREE_OLED.obj, .\Out_File\SEEKFREE_PRINTF.obj, .\Out_File\SEEKFREE_VIRSCO.obj, .\
>> Out_File\SEEKFREE_WIRELESS.obj, .\Out_File\SEEKFREE_WIRELESS_CH573.obj, .\Out_File\isr.obj, .\Out_File\main.obj, .\Ou
>> t_File\All_init.obj, .\Out_File\Motor.obj, .\Out_File\Key.obj, .\Out_File\Screen.obj, .\Out_File\Pid.obj, .\Out_File\
>> Encoder.obj, .\Out_File\Adc.obj, .\Out_File\Beep.obj, .\Out_File\inductance.obj, .\Out_File\Control.obj, .\Out_File\s
>> eekfree_assistant.obj, .\Out_File\seekfree_assistant_inface.obj TO .\Out_File\SEEKFREE PRINT (.\Out_File\SEEKFREE.map
>> ) CASE DISABLEWARNING (15, 16, 57) REMOVEUNUSED CLASSES (EDATA (0X0-0XFFF), HDATA (0X0-0XFFF))


CPU MODE:     251 SOURCE MODE
INTR FRAME:   2 BYTES SAVED ON INTERRUPT
MEMORY MODEL: XSMALL WITH FLOATING POINT ARITHMETIC


INPUT MODULES INCLUDED:
  .\Out_File\board.obj (board)
         COMMENT TYPE 0: C251 V5.60.0
  .\Out_File\common.obj (common)
         COMMENT TYPE 0: C251 V5.60.0
  .\Out_File\zf_adc.obj (zf_adc)
         COMMENT TYPE 0: C251 V5.60.0
  .\Out_File\zf_delay.obj (zf_delay)
         COMMENT TYPE 0: C251 V5.60.0
  .\Out_File\zf_eeprom.obj (zf_eeprom)
         COMMENT TYPE 0: C251 V5.60.0
  .\Out_File\zf_exti.obj (zf_exti)
         COMMENT TYPE 0: C251 V5.60.0
  .\Out_File\zf_gpio.obj (zf_gpio)
         COMMENT TYPE 0: C251 V5.60.0
  .\Out_File\zf_nvic.obj (zf_nvic)
         COMMENT TYPE 0: C251 V5.60.0
  .\Out_File\zf_pwm.obj (zf_pwm)
         COMMENT TYPE 0: C251 V5.60.0
  .\Out_File\zf_spi.obj (zf_spi)
         COMMENT TYPE 0: C251 V5.60.0
  .\Out_File\zf_tim.obj (zf_tim)
         COMMENT TYPE 0: C251 V5.60.0
  .\Out_File\zf_uart.obj (zf_uart)
         COMMENT TYPE 0: C251 V5.60.0
  .\Out_File\zf_fifo.obj (zf_fifo)
         COMMENT TYPE 0: C251 V5.60.0
  .\Out_File\SEEKFREE_18TFT.obj (SEEKFREE_18TFT)
         COMMENT TYPE 0: C251 V5.60.0
  .\Out_File\SEEKFREE_BLUETOOTH_CH9141.obj (SEEKFREE_BLUETOOTH_CH9141)
         COMMENT TYPE 0: C251 V5.60.0
  .\Out_File\SEEKFREE_DL1A.obj (SEEKFREE_DL1A)
         COMMENT TYPE 0: C251 V5.60.0
  .\Out_File\SEEKFREE_DL1B.obj (SEEKFREE_DL1B)
         COMMENT TYPE 0: C251 V5.60.0
  .\Out_File\SEEKFREE_FONT.obj (SEEKFREE_FONT)
         COMMENT TYPE 0: C251 V5.60.0
  .\Out_File\SEEKFREE_ICM20602.obj (SEEKFREE_ICM20602)
         COMMENT TYPE 0: C251 V5.60.0
  .\Out_File\SEEKFREE_IMU660RA.obj (SEEKFREE_IMU660RA)
         COMMENT TYPE 0: C251 V5.60.0
  .\Out_File\SEEKFREE_IMU963RA.obj (SEEKFREE_IMU963RA)
         COMMENT TYPE 0: C251 V5.60.0
  .\Out_File\SEEKFREE_IPS114_SPI.obj (SEEKFREE_IPS114_SPI)
         COMMENT TYPE 0: C251 V5.60.0
  .\Out_File\SEEKFREE_MPU6050.obj (SEEKFREE_MPU6050)
L251 LINKER/LOCATER V4.66.93.0                                                        03/12/2024  22:09:15  PAGE 2


         COMMENT TYPE 0: C251 V5.60.0
  .\Out_File\SEEKFREE_OLED.obj (SEEKFREE_OLED)
         COMMENT TYPE 0: C251 V5.60.0
  .\Out_File\SEEKFREE_PRINTF.obj (SEEKFREE_PRINTF)
         COMMENT TYPE 0: C251 V5.60.0
  .\Out_File\SEEKFREE_VIRSCO.obj (SEEKFREE_VIRSCO)
         COMMENT TYPE 0: C251 V5.60.0
  .\Out_File\SEEKFREE_WIRELESS.obj (SEEKFREE_WIRELESS)
         COMMENT TYPE 0: C251 V5.60.0
  .\Out_File\SEEKFREE_WIRELESS_CH573.obj (SEEKFREE_WIRELESS_CH573)
         COMMENT TYPE 0: C251 V5.60.0
  .\Out_File\isr.obj (isr)
         COMMENT TYPE 0: C251 V5.60.0
  .\Out_File\main.obj (main)
         COMMENT TYPE 0: C251 V5.60.0
  .\Out_File\All_init.obj (All_init)
         COMMENT TYPE 0: C251 V5.60.0
  .\Out_File\Motor.obj (Motor)
         COMMENT TYPE 0: C251 V5.60.0
  .\Out_File\Key.obj (Key)
         COMMENT TYPE 0: C251 V5.60.0
  .\Out_File\Screen.obj (Screen)
         COMMENT TYPE 0: C251 V5.60.0
  .\Out_File\Pid.obj (Pid)
         COMMENT TYPE 0: C251 V5.60.0
  .\Out_File\Encoder.obj (Encoder)
         COMMENT TYPE 0: C251 V5.60.0
  .\Out_File\Adc.obj (Adc)
         COMMENT TYPE 0: C251 V5.60.0
  .\Out_File\Beep.obj (Beep)
         COMMENT TYPE 0: C251 V5.60.0
  .\Out_File\inductance.obj (inductance)
         COMMENT TYPE 0: C251 V5.60.0
  .\Out_File\Control.obj (Control)
         COMMENT TYPE 0: C251 V5.60.0
  .\Out_File\seekfree_assistant.obj (seekfree_assistant)
         COMMENT TYPE 0: C251 V5.60.0
  .\Out_File\seekfree_assistant_inface.obj (seekfree_assistant_inface)
         COMMENT TYPE 0: C251 V5.60.0
  ..\..\Libraries\seekfree_peripheral\SEEKFREE_CONFIG.LIB (SEEKFREE_CONFIG)
         COMMENT TYPE 0: C251 V5.60.0
  D:\KEIL5\C251\LIB\C2SFPXS.LIB (?C?FPADD)
         COMMENT TYPE 0: A251 V4.69.6.0
  D:\KEIL5\C251\LIB\C2SFPXS.LIB (?C?FPMUL)
         COMMENT TYPE 0: A251 V4.69.6.0
  D:\KEIL5\C251\LIB\C2SFPXS.LIB (?C?FPDIV)
         COMMENT TYPE 0: A251 V4.69.6.0
  D:\KEIL5\C251\LIB\C2SFPXS.LIB (?C?FPCMP)
         COMMENT TYPE 0: A251 V4.69.6.0
  D:\KEIL5\C251\LIB\C2SFPXS.LIB (?C?FCAST)
         COMMENT TYPE 0: A251 V4.69.6.0
  D:\KEIL5\C251\LIB\C2SFPXS.LIB (?C?CASTF)
         COMMENT TYPE 0: A251 V4.69.6.0
  D:\KEIL5\C251\LIB\C2SFPXS.LIB (PRINTF)
         COMMENT TYPE 0: A251 V4.69.6.0
  D:\KEIL5\C251\LIB\C2SFPXS.LIB (SQRT?_)
         COMMENT TYPE 0: A251 V4.69.6.0
  D:\KEIL5\C251\LIB\C2SFPXS.LIB (?C?FPGETOPN)
         COMMENT TYPE 0: A251 V4.69.6.0
  D:\KEIL5\C251\LIB\C2SFPXS.LIB (?C?PRNFMT)
         COMMENT TYPE 0: A251 V4.69.6.0
  D:\KEIL5\C251\LIB\C2SFPXS.LIB (?C?FPCONVERT)
         COMMENT TYPE 0: A251 V4.69.6.0
  D:\KEIL5\C251\LIB\C2SFPXS.LIB (?C?FTNPWR)
         COMMENT TYPE 0: A251 V4.69.6.0
L251 LINKER/LOCATER V4.66.93.0                                                        03/12/2024  22:09:15  PAGE 3


  D:\KEIL5\C251\LIB\C2SXS.LIB (?C_START)
         COMMENT TYPE 0: A251 V4.69.6.0
  D:\KEIL5\C251\LIB\C2SXS.LIB (?C?INITEDATA)
         COMMENT TYPE 0: A251 V4.69.6.0
  D:\KEIL5\C251\LIB\C2SXS.LIB (?C?SIDIV)
         COMMENT TYPE 0: A251 V4.69.6.0
  D:\KEIL5\C251\LIB\C2SXS.LIB (?C?LMUL)
         COMMENT TYPE 0: A251 V4.69.6.0
  D:\KEIL5\C251\LIB\C2SXS.LIB (?C?LIMUL)
         COMMENT TYPE 0: A251 V4.69.6.0
  D:\KEIL5\C251\LIB\C2SXS.LIB (?C?ULDIV)
         COMMENT TYPE 0: A251 V4.69.6.0
  D:\KEIL5\C251\LIB\C2SXS.LIB (?C?SLDIV)
         COMMENT TYPE 0: A251 V4.69.6.0
  D:\KEIL5\C251\LIB\C2SXS.LIB (?C?BMOVENP)
         COMMENT TYPE 0: A251 V4.69.6.0
  D:\KEIL5\C251\LIB\C2SXS.LIB (memcpy)
         COMMENT TYPE 0: C251 V5.58.7
  D:\KEIL5\C251\LIB\C2SXS.LIB (memset)
         COMMENT TYPE 0: C251 V5.58.7
  D:\KEIL5\C251\LIB\C2SXS.LIB (?C?INITEDATA_END)
         COMMENT TYPE 0: A251 V4.69.6.0


ACTIVE MEMORY CLASSES OF MODULE:  .\Out_File\SEEKFREE (board)

BASE        START       END         USED      MEMORY CLASS
==========================================================
000000H     000000H     000FFFH     000F03H   EDATA
000000H     000000H     000FFFH               HDATA
FF0000H     FF0000H     FFFFFFH     008FACH   CODE
000000H     FF0000H     FFFFFFH     00032EH   HCONST
FF0000H     FF0000H     FFFFFFH     000004H   CONST
000000H     000000H     00007FH     000008H   DATA


MEMORY MAP OF MODULE:  .\Out_File\SEEKFREE (board)


START     STOP      LENGTH    ALIGN  RELOC    MEMORY CLASS   SEGMENT NAME
=========================================================================
000000H   000007H   000008H   ---    AT..     DATA           "REG BANK 0"
000008H   0000EAH   0000E3H   BYTE   UNIT     EDATA          ?ED?SEEKFREE_ASSISTANT
0000EBH   0001C6H   0000DCH   BYTE   UNIT     EDATA          ?ED?INDUCTANCE
0001C7H   000276H   0000B0H   BYTE   UNIT     EDATA          ?ED?PID
000277H   000303H   00008DH   BYTE   UNIT     EDATA          ?ED?SEEKFREE_ASSISTANT_DATA_ANALYSIS?SEEKFREE_ASSISTANT
000304H   00038FH   00008CH   BYTE   UNIT     EDATA          ?ED?DL1B_INIT?SEEKFREE_DL1B
000390H   0003EEH   00005FH   BYTE   UNIT     EDATA          ?ED?ZF_SPRINTF?SEEKFREE_PRINTF
0003EFH   000446H   000058H   BYTE   UNIT     EDATA          ?ED?SEEKFREE_BLUETOOTH_CH9141
000447H   00049EH   000058H   BYTE   UNIT     EDATA          ?ED?SEEKFREE_WIRELESS
00049FH   0004F6H   000058H   BYTE   UNIT     EDATA          ?ED?SEEKFREE_WIRELESS_CH573
0004F7H   000526H   000030H   BYTE   UNIT     EDATA          ?ED?LCD_SHOWFLOAT_SIMSPI?SEEKFREE_18TFT
000527H   000556H   000030H   BYTE   UNIT     EDATA          ?ED?LCD_SHOWFLOAT?SEEKFREE_18TFT
000557H   000586H   000030H   BYTE   UNIT     EDATA          ?ED?IPS114_SHOWFLOAT_SIMSPI?SEEKFREE_IPS114_SPI
000587H   0005B6H   000030H   BYTE   UNIT     EDATA          ?ED?IPS114_SHOWFLOAT?SEEKFREE_IPS114_SPI
0005B7H   0005E6H   000030H   BYTE   UNIT     EDATA          ?ED?OLED_PRINTF_FLOAT?SEEKFREE_OLED
0005E7H   000616H   000030H   BYTE   UNIT     EDATA          ?ED?OLED_PRINTF_FLOAT_SPI?SEEKFREE_OLED
000617H   000645H   00002FH   BYTE   UNIT     EDATA          ?ED?DL1A_SET_MEASUREMENT_TIMING_BUDGET?SEEKFREE_DL1A
000646H   000671H   00002CH   BYTE   UNIT     EDATA          ?ED?LCD_SHOWINT32_SIMSPI?SEEKFREE_18TFT
000672H   00069DH   00002CH   BYTE   UNIT     EDATA          ?ED?LCD_SHOWINT32?SEEKFREE_18TFT
00069EH   0006C9H   00002CH   BYTE   UNIT     EDATA          ?ED?IPS114_SHOWINT32_SIMSPI?SEEKFREE_IPS114_SPI
0006CAH   0006F5H   00002CH   BYTE   UNIT     EDATA          ?ED?IPS114_SHOWINT32?SEEKFREE_IPS114_SPI
0006F6H   000721H   00002CH   BYTE   UNIT     EDATA          ?ED?OLED_PRINTF_INT32?SEEKFREE_OLED
000722H   00074DH   00002CH   BYTE   UNIT     EDATA          ?ED?OLED_PRINTF_INT32_SPI?SEEKFREE_OLED
00074EH   000777H   00002AH   BYTE   UNIT     EDATA          ?ED?SEEKFREE_ASSISTANT_OSCILLOSCOPE_SEND?SEEKFREE_ASSISTAN
L251 LINKER/LOCATER V4.66.93.0                                                        03/12/2024  22:09:15  PAGE 4


                                                             -T
000778H   00079DH   000026H   BYTE   UNIT     EDATA          ?ED?CONTROL
00079EH   0007C1H   000024H   BYTE   UNIT     EDATA          ?ED?KEY
0007C2H   0007E0H   00001FH   BYTE   UNIT     EDATA          ?ED?DL1A_GET_MEASUREMENT_TIMING_BUDGET?SEEKFREE_DL1A
0007E1H   0007F8H   000018H   BYTE   UNIT     EDATA          ?ED?FIFO_READ_BUFFER?ZF_FIFO
0007F9H   000810H   000018H   BYTE   UNIT     EDATA          ?ED?FIFO_READ_TAIL_BUFFER?ZF_FIFO
000811H   000827H   000017H   BYTE   UNIT     EDATA          ?ED?INDUCTORREAD?INDUCTANCE
000828H   00083CH   000015H   BYTE   UNIT     EDATA          ?ED?DL1A_INIT?SEEKFREE_DL1A
00083DH   000850H   000014H   BYTE   UNIT     EDATA          ?ED?PWM_INIT?ZF_PWM
000851H   000864H   000014H   BYTE   UNIT     EDATA          ?ED?PWM_FREQ?ZF_PWM
000865H   000878H   000014H   BYTE   UNIT     EDATA          ?ED?NUMBER_CONVERSION_ASCII?SEEKFREE_PRINTF
000879H   00088AH   000012H   BYTE   UNIT     EDATA          ?ED?FIFO_WRITE_BUFFER?ZF_FIFO
00088BH   00089CH   000012H   BYTE   UNIT     EDATA          ?ED?SEEKFREE_IMU963RA
00089DH   0008AEH   000012H   BYTE   UNIT     EDATA          ?ED?OLED_DIS_BMP?SEEKFREE_OLED
0008AFH   0008C0H   000012H   BYTE   UNIT     EDATA          ?ED?OLED_DIS_BMP_SPI?SEEKFREE_OLED
0008C1H   0008D0H   000010H   BYTE   UNIT     EDATA          ?ED?FIFO_INIT?ZF_FIFO
0008D1H   0008E0H   000010H   BYTE   UNIT     EDATA          ?ED?DL1B_IIC_TRANSFER_8BIT_ARRAY?SEEKFREE_DL1B
0008E1H   0008F0H   000010H   BYTE   UNIT     EDATA          ?ED?PID_POS_INIT?PID
0008F1H   000900H   000010H   BYTE   UNIT     EDATA          ?ED?PID_INC_INIT?PID
000901H   00090EH   00000EH   BYTE   UNIT     EDATA          ?ED?PWM_DUTY?ZF_PWM
00090FH   00091CH   00000EH   BYTE   UNIT     EDATA          ?ED?UART_INIT?ZF_UART
00091DH   00092AH   00000EH   BYTE   UNIT     EDATA          ?ED?OLED_PRINT_CHINESE?SEEKFREE_OLED
00092BH   000938H   00000EH   BYTE   UNIT     EDATA          ?ED?OLED_PRINT_CHINESE_SPI?SEEKFREE_OLED
000939H   000946H   00000EH   BYTE   UNIT     EDATA          ?ED?DATA_CONVERSION?SEEKFREE_VIRSCO
000947H   000953H   00000DH   BYTE   UNIT     EDATA          ?ED?SPI_INIT?ZF_SPI
000954H   000960H   00000DH   BYTE   UNIT     EDATA          ?ED?ICM20602_SIMSPI_R_REG_BYTES?SEEKFREE_ICM20602
000961H   00096DH   00000DH   BYTE   UNIT     EDATA          ?ED?PRINTF_REVERSE_ORDER?SEEKFREE_PRINTF
00096EH   000979H   00000CH   BYTE   UNIT     EDATA          ?ED?FIFO_READ_ELEMENT?ZF_FIFO
00097AH   000985H   00000CH   BYTE   UNIT     EDATA          ?ED?LCD_SHOWINT16_SIMSPI?SEEKFREE_18TFT
000986H   000991H   00000CH   BYTE   UNIT     EDATA          ?ED?LCD_SHOWUINT16_SIMSPI?SEEKFREE_18TFT
000992H   00099DH   00000CH   BYTE   UNIT     EDATA          ?ED?LCD_SHOWINT16?SEEKFREE_18TFT
00099EH   0009A9H   00000CH   BYTE   UNIT     EDATA          ?ED?LCD_SHOWUINT16?SEEKFREE_18TFT
0009AAH   0009B5H   00000CH   BYTE   UNIT     EDATA          ?ED?SHOWIMAGE?SEEKFREE_18TFT
0009B6H   0009C1H   00000CH   BYTE   UNIT     EDATA          ?ED?BLUETOOTH_CH9141_READ_BUFF?SEEKFREE_BLUETOOTH_CH9141
0009C2H   0009CDH   00000CH   BYTE   UNIT     EDATA          ?ED?DL1A_GET_SPAD_INFO?SEEKFREE_DL1A
0009CEH   0009D9H   00000CH   BYTE   UNIT     EDATA          ?ED?DL1A_GET_SEQUENCE_STEP_TIMEOUTS?SEEKFREE_DL1A
0009DAH   0009E5H   00000CH   BYTE   UNIT     EDATA          ?ED?SEEKFREE_ICM20602
0009E6H   0009F1H   00000CH   BYTE   UNIT     EDATA          ?ED?SEEKFREE_IMU660RA
0009F2H   0009FDH   00000CH   BYTE   UNIT     EDATA          ?ED?IPS114_SHOWINT16_SIMSPI?SEEKFREE_IPS114_SPI
0009FEH   000A09H   00000CH   BYTE   UNIT     EDATA          ?ED?IPS114_SHOWUINT16_SIMSPI?SEEKFREE_IPS114_SPI
000A0AH   000A15H   00000CH   BYTE   UNIT     EDATA          ?ED?IPS114_SHOWINT16?SEEKFREE_IPS114_SPI
000A16H   000A21H   00000CH   BYTE   UNIT     EDATA          ?ED?IPS114_SHOWUINT16?SEEKFREE_IPS114_SPI
000A22H   000A2DH   00000CH   BYTE   UNIT     EDATA          ?ED?SEEKFREE_MPU6050
000A2EH   000A39H   00000CH   BYTE   UNIT     EDATA          ?ED?WIRELESS_UART_READ_BUFF?SEEKFREE_WIRELESS
000A3AH   000A45H   00000CH   BYTE   UNIT     EDATA          ?ED?WIRELESS_CH573_READ_BUFF?SEEKFREE_WIRELESS_CH573
000A46H   000A50H   00000BH   BYTE   UNIT     EDATA          ?ED?OLED_UINT16?SEEKFREE_OLED
000A51H   000A5BH   00000BH   BYTE   UNIT     EDATA          ?ED?OLED_INT16?SEEKFREE_OLED
000A5CH   000A66H   00000BH   BYTE   UNIT     EDATA          ?ED?OLED_UINT16_SPI?SEEKFREE_OLED
000A67H   000A71H   00000BH   BYTE   UNIT     EDATA          ?ED?OLED_INT16_SPI?SEEKFREE_OLED
000A72H   000A7BH   00000AH   BYTE   UNIT     EDATA          ?ED?IAP_READ_BYTES?ZF_EEPROM
000A7CH   000A85H   00000AH   BYTE   UNIT     EDATA          ?ED?IAP_WRITE_BYTES?ZF_EEPROM
000A86H   000A8FH   00000AH   BYTE   UNIT     EDATA          ?ED?UART_PUTBUFF?ZF_UART
000A90H   000A99H   00000AH   BYTE   UNIT     EDATA          ?ED?FIFO_WRITE_ELEMENT?ZF_FIFO
000A9AH   000AA3H   00000AH   BYTE   UNIT     EDATA          ?ED?LCD_SHOWSTR_SIMSPI?SEEKFREE_18TFT
000AA4H   000AADH   00000AH   BYTE   UNIT     EDATA          ?ED?LCD_SHOWSTR?SEEKFREE_18TFT
000AAEH   000AB7H   00000AH   BYTE   UNIT     EDATA          ?ED?BLUETOOTH_CH9141_SEND_BUFF?SEEKFREE_BLUETOOTH_CH9141
000AB8H   000AC1H   00000AH   BYTE   UNIT     EDATA          ?ED?DL1A_SIMIIC_READ_REGS?SEEKFREE_DL1A
000AC2H   000ACBH   00000AH   BYTE   UNIT     EDATA          ?ED?DL1A_SIMIIC_READ_REGS_1?SEEKFREE_DL1A
000ACCH   000AD5H   00000AH   BYTE   UNIT     EDATA          ?ED?DL1A_ENCODE_TIMEOUT?SEEKFREE_DL1A
000AD6H   000ADFH   00000AH   BYTE   UNIT     EDATA          ?ED?IPS114_SHOWSTR_SIMSPI?SEEKFREE_IPS114_SPI
000AE0H   000AE9H   00000AH   BYTE   UNIT     EDATA          ?ED?IPS114_SHOWSTR?SEEKFREE_IPS114_SPI
000AEAH   000AF3H   00000AH   BYTE   UNIT     EDATA          ?ED?SEEKFREE_VIRSCO
000AF4H   000AFCH   000009H   BYTE   UNIT     EDATA          ?ED?LCD_SHOWINT8_SIMSPI?SEEKFREE_18TFT
000AFDH   000B05H   000009H   BYTE   UNIT     EDATA          ?ED?LCD_SHOWUINT8_SIMSPI?SEEKFREE_18TFT
000B06H   000B0EH   000009H   BYTE   UNIT     EDATA          ?ED?LCD_SHOWINT8?SEEKFREE_18TFT
L251 LINKER/LOCATER V4.66.93.0                                                        03/12/2024  22:09:15  PAGE 5


000B0FH   000B17H   000009H   BYTE   UNIT     EDATA          ?ED?LCD_SHOWUINT8?SEEKFREE_18TFT
000B18H   000B20H   000009H   BYTE   UNIT     EDATA          ?ED?DL1A_SIMIIC_WRITE_DATS?SEEKFREE_DL1A
000B21H   000B29H   000009H   BYTE   UNIT     EDATA          ?ED?DL1A_TIMEOUT_MICROSECONDS_TO_MCLKS?SEEKFREE_DL1A
000B2AH   000B32H   000009H   BYTE   UNIT     EDATA          ?ED?DL1A_SET_SIGNAL_RATE_LIMIT?SEEKFREE_DL1A
000B33H   000B3BH   000009H   BYTE   UNIT     EDATA          ?ED?ICM20602_READ_REGISTERS?SEEKFREE_ICM20602
000B3CH   000B44H   000009H   BYTE   UNIT     EDATA          ?ED?IMU660RA_SIMSPI_W_REG_BYTES?SEEKFREE_IMU660RA
000B45H   000B4DH   000009H   BYTE   UNIT     EDATA          ?ED?IMU660RA_SIMSPI_R_REG_BYTES?SEEKFREE_IMU660RA
000B4EH   000B56H   000009H   BYTE   UNIT     EDATA          ?ED?IMU660RA_WRITE_REGISTERS?SEEKFREE_IMU660RA
000B57H   000B5FH   000009H   BYTE   UNIT     EDATA          ?ED?IMU660RA_READ_REGISTERS?SEEKFREE_IMU660RA
000B60H   000B68H   000009H   BYTE   UNIT     EDATA          ?ED?IMU963RA_SIMSPI_R_REG_BYTES?SEEKFREE_IMU963RA
000B69H   000B71H   000009H   BYTE   UNIT     EDATA          ?ED?IMU963RA_READ_ACC_GYRO_REGISTERS?SEEKFREE_IMU963RA
000B72H   000B7AH   000009H   BYTE   UNIT     EDATA          ?ED?IPS114_SHOWINT8_SIMSPI?SEEKFREE_IPS114_SPI
000B7BH   000B83H   000009H   BYTE   UNIT     EDATA          ?ED?IPS114_SHOWUINT8_SIMSPI?SEEKFREE_IPS114_SPI
000B84H   000B8CH   000009H   BYTE   UNIT     EDATA          ?ED?IPS114_SHOWINT8?SEEKFREE_IPS114_SPI
000B8DH   000B95H   000009H   BYTE   UNIT     EDATA          ?ED?IPS114_SHOWUINT8?SEEKFREE_IPS114_SPI
000B96H   000B9EH   000009H   BYTE   UNIT     EDATA          ?ED?OLED_P6X8STR?SEEKFREE_OLED
000B9FH   000BA7H   000009H   BYTE   UNIT     EDATA          ?ED?OLED_P8X16STR?SEEKFREE_OLED
000BA8H   000BB0H   000009H   BYTE   UNIT     EDATA          ?ED?OLED_P6X8STR_SPI?SEEKFREE_OLED
000BB1H   000BB9H   000009H   BYTE   UNIT     EDATA          ?ED?OLED_P8X16STR_SPI?SEEKFREE_OLED
000BBAH   000BC2H   000009H   BYTE   UNIT     EDATA          ?ED?CRC_CHECK?SEEKFREE_VIRSCO
000BC3H   000BCBH   000009H   BYTE   UNIT     EDATA          ?ED?SEEKFREE_ASSISTANT_SUM?SEEKFREE_ASSISTANT
000BCCH   000BD3H   000008H   BYTE   UNIT     EDATA          ?ED?FIFO_HEAD_OFFSET?ZF_FIFO
000BD4H   000BDBH   000008H   BYTE   UNIT     EDATA          ?ED?FIFO_END_OFFSET?ZF_FIFO
000BDCH   000BE3H   000008H   BYTE   UNIT     EDATA          ?ED?LCD_SET_REGION_SIMSPI?SEEKFREE_18TFT
000BE4H   000BEBH   000008H   BYTE   UNIT     EDATA          ?ED?LCD_SHOWCHAR_SIMSPI?SEEKFREE_18TFT
000BECH   000BF3H   000008H   BYTE   UNIT     EDATA          ?ED?LCD_SET_REGION?SEEKFREE_18TFT
000BF4H   000BFBH   000008H   BYTE   UNIT     EDATA          ?ED?LCD_SHOWCHAR?SEEKFREE_18TFT
000BFCH   000C03H   000008H   BYTE   UNIT     EDATA          ?ED?IPS114_SET_REGION_SIMSPI?SEEKFREE_IPS114_SPI
000C04H   000C0BH   000008H   BYTE   UNIT     EDATA          ?ED?IPS114_SHOWCHAR_SIMSPI?SEEKFREE_IPS114_SPI
000C0CH   000C13H   000008H   BYTE   UNIT     EDATA          ?ED?IPS114_SET_REGION?SEEKFREE_IPS114_SPI
000C14H   000C1BH   000008H   BYTE   UNIT     EDATA          ?ED?IPS114_SHOWCHAR?SEEKFREE_IPS114_SPI
000C1CH   000C23H   000008H   BYTE   UNIT     EDATA          ?ED?OLED_HEXASCII?SEEKFREE_OLED
000C24H   000C2BH   000008H   BYTE   UNIT     EDATA          ?ED?OLED_HEXASCII_SPI?SEEKFREE_OLED
000C2CH   000C33H   000008H   BYTE   UNIT     EDATA          ?ED?WIRELESS_UART_SEND_BUFF?SEEKFREE_WIRELESS
000C34H   000C3BH   000008H   BYTE   UNIT     EDATA          ?ED?PID_POSITION?PID
000C3CH   000C43H   000008H   BYTE   UNIT     EDATA          ?ED?PID_INCREASE?PID
000C44H   000C4AH   000007H   BYTE   UNIT     EDATA          ?ED?DL1A_TIMEOUT_MCLKS_TO_MICROSECONDS?SEEKFREE_DL1A
000C4BH   000C51H   000007H   BYTE   UNIT     EDATA          ?ED?IMU660RA_GET_ACC?SEEKFREE_IMU660RA
000C52H   000C58H   000007H   BYTE   UNIT     EDATA          ?ED?IMU660RA_GET_GYRO?SEEKFREE_IMU660RA
000C59H   000C5FH   000007H   BYTE   UNIT     EDATA          ?ED?IMU963RA_GET_MAG?SEEKFREE_IMU963RA
000C60H   000C66H   000007H   BYTE   UNIT     EDATA          ?ED?MPU6050_SIMIIC_READ_REGS?SEEKFREE_MPU6050
000C67H   000C6CH   000006H   BYTE   UNIT     EDATA          ?ED?ADC_ONCE?ZF_ADC
000C6DH   000C72H   000006H   BYTE   UNIT     EDATA          ?ED?DELAY_US?ZF_DELAY
000C73H   000C78H   000006H   BYTE   UNIT     EDATA          ?ED?PIT_TIMER_MS?ZF_TIM
000C79H   000C7EH   000006H   BYTE   UNIT     EDATA          ?ED?UART_PUTSTR?ZF_UART
000C7FH   000C84H   000006H   BYTE   UNIT     EDATA          ?ED?FIFO_CLEAR?ZF_FIFO
000C85H   000C8AH   000006H   BYTE   UNIT     EDATA          ?ED?LCD_DRAWPOINT_SIMSPI?SEEKFREE_18TFT
000C8BH   000C90H   000006H   BYTE   UNIT     EDATA          ?ED?LCD_DRAWPOINT?SEEKFREE_18TFT
000C91H   000C96H   000006H   BYTE   UNIT     EDATA          ?ED?ICM20602_GET_ACC?SEEKFREE_ICM20602
000C97H   000C9CH   000006H   BYTE   UNIT     EDATA          ?ED?ICM20602_GET_GYRO?SEEKFREE_ICM20602
000C9DH   000CA2H   000006H   BYTE   UNIT     EDATA          ?ED?ICM20602_ACC_TRANSITION?SEEKFREE_ICM20602
000CA3H   000CA8H   000006H   BYTE   UNIT     EDATA          ?ED?ICM20602_GYRO_TRANSITION?SEEKFREE_ICM20602
000CA9H   000CAEH   000006H   BYTE   UNIT     EDATA          ?ED?IMU660RA_ACC_TRANSITION?SEEKFREE_IMU660RA
000CAFH   000CB4H   000006H   BYTE   UNIT     EDATA          ?ED?IMU660RA_GYRO_TRANSITION?SEEKFREE_IMU660RA
000CB5H   000CBAH   000006H   BYTE   UNIT     EDATA          ?ED?IMU963RA_WRITE_MAG_REGISTER?SEEKFREE_IMU963RA
000CBBH   000CC0H   000006H   BYTE   UNIT     EDATA          ?ED?IMU963RA_GET_ACC?SEEKFREE_IMU963RA
000CC1H   000CC6H   000006H   BYTE   UNIT     EDATA          ?ED?IMU963RA_GET_GYRO?SEEKFREE_IMU963RA
000CC7H   000CCCH   000006H   BYTE   UNIT     EDATA          ?ED?IMU963RA_ACC_TRANSITION?SEEKFREE_IMU963RA
000CCDH   000CD2H   000006H   BYTE   UNIT     EDATA          ?ED?IMU963RA_GYRO_TRANSITION?SEEKFREE_IMU963RA
000CD3H   000CD8H   000006H   BYTE   UNIT     EDATA          ?ED?IMU963RA_MAG_TRANSITION?SEEKFREE_IMU963RA
000CD9H   000CDEH   000006H   BYTE   UNIT     EDATA          ?ED?IPS114_CLEAR_SIMSPI?SEEKFREE_IPS114_SPI
000CDFH   000CE4H   000006H   BYTE   UNIT     EDATA          ?ED?IPS114_DRAWPOINT_SIMSPI?SEEKFREE_IPS114_SPI
000CE5H   000CEAH   000006H   BYTE   UNIT     EDATA          ?ED?IPS114_CLEAR?SEEKFREE_IPS114_SPI
000CEBH   000CF0H   000006H   BYTE   UNIT     EDATA          ?ED?IPS114_DRAWPOINT?SEEKFREE_IPS114_SPI
000CF1H   000CF6H   000006H   BYTE   UNIT     EDATA          ?ED?MPU6050_GET_ACCDATA?SEEKFREE_MPU6050
L251 LINKER/LOCATER V4.66.93.0                                                        03/12/2024  22:09:15  PAGE 6


000CF7H   000CFCH   000006H   BYTE   UNIT     EDATA          ?ED?MPU6050_GET_GYRO?SEEKFREE_MPU6050
000CFDH   000D02H   000006H   BYTE   UNIT     EDATA          ?ED?WIRELESS_CH573_SEND_BUFF?SEEKFREE_WIRELESS_CH573
000D03H   000D07H   000005H   BYTE   UNIT     EDATA          ?ED?ZF_UART
000D08H   000D0CH   000005H   BYTE   UNIT     EDATA          ?ED?DL1A_GET_SEQUENCE_STEP_ENABLES?SEEKFREE_DL1A
000D0DH   000D11H   000005H   BYTE   UNIT     EDATA          ?ED?DL1A_PERFORM_SINGLE_REF_CALIBRATION?SEEKFREE_DL1A
000D12H   000D16H   000005H   BYTE   UNIT     EDATA          ?ED?DL1B_GET_DISTANCE?SEEKFREE_DL1B
000D17H   000D1BH   000005H   BYTE   UNIT     EDATA          ?ED?ICM20602_SIMSPI_R_REG_BYTE?SEEKFREE_ICM20602
000D1CH   000D20H   000005H   BYTE   UNIT     EDATA          ?ED?IMU963RA_SIMSPI_R_REG_BYTE?SEEKFREE_IMU963RA
000D21H   000D24H   000004H   BYTE   UNIT     EDATA          ?ED?BOARD
000D25H   000D28H   000004H   BYTE   UNIT     EDATA          ?ED?ADC_INIT?ZF_ADC
000D29H   000D2CH   000004H   BYTE   UNIT     EDATA          ?ED?ZF_DELAY
000D2DH   000D30H   000004H   BYTE   UNIT     EDATA          ?ED?DELAY_MS?ZF_DELAY
000D31H   000D34H   000004H   BYTE   UNIT     EDATA          ?ED?IAP_ERASE_PAGE?ZF_EEPROM
000D35H   000D38H   000004H   BYTE   UNIT     EDATA          ?ED?EXIT_INIT?ZF_EXTI
000D39H   000D3CH   000004H   BYTE   UNIT     EDATA          ?ED?GPIO_PULL_SET?ZF_GPIO
000D3DH   000D40H   000004H   BYTE   UNIT     EDATA          ?ED?GPIO_MODE?ZF_GPIO
000D41H   000D44H   000004H   BYTE   UNIT     EDATA          ?ED?CTIMER_COUNT_READ?ZF_TIM
000D45H   000D48H   000004H   BYTE   UNIT     EDATA          ?ED?FIFO_USED?ZF_FIFO
000D49H   000D4CH   000004H   BYTE   UNIT     EDATA          ?ED?LCD_CLEAR_SIMSPI?SEEKFREE_18TFT
000D4DH   000D50H   000004H   BYTE   UNIT     EDATA          ?ED?LCD_WRITEDATA_16BIT?SEEKFREE_18TFT
000D51H   000D54H   000004H   BYTE   UNIT     EDATA          ?ED?LCD_CLEAR?SEEKFREE_18TFT
000D55H   000D58H   000004H   BYTE   UNIT     EDATA          ?ED?SEEKFREE_DL1B
000D59H   000D5CH   000004H   BYTE   UNIT     EDATA          ?ED?ICM20602_SELF_CHECK?SEEKFREE_ICM20602
000D5DH   000D60H   000004H   BYTE   UNIT     EDATA          ?ED?ICM20602_INIT?SEEKFREE_ICM20602
000D61H   000D64H   000004H   BYTE   UNIT     EDATA          ?ED?IMU660RA_SELF_CHECK?SEEKFREE_IMU660RA
000D65H   000D68H   000004H   BYTE   UNIT     EDATA          ?ED?IMU963RA_READ_MAG_REGISTER?SEEKFREE_IMU963RA
000D69H   000D6CH   000004H   BYTE   UNIT     EDATA          ?ED?IMU963RA_ACC_GYRO_SELF_CHECK?SEEKFREE_IMU963RA
000D6DH   000D70H   000004H   BYTE   UNIT     EDATA          ?ED?IMU963RA_MAG_SELF_CHECK?SEEKFREE_IMU963RA
000D71H   000D74H   000004H   BYTE   UNIT     EDATA          ?ED?IPS114_WRITEDATA_16BIT?SEEKFREE_IPS114_SPI
000D75H   000D78H   000004H   BYTE   UNIT     EDATA          ?ED?SEEKFREE_ASSISTANT_INFACE
000D79H   000D7BH   000003H   BYTE   UNIT     EDATA          ?ED?NVIC_SETPRIORITY?ZF_NVIC
000D7CH   000D7EH   000003H   BYTE   UNIT     EDATA          ?ED?UART_PUTCHAR?ZF_UART
000D7FH   000D81H   000003H   BYTE   UNIT     EDATA          ?ED?LCD_WRITEDATA_16BIT_SIMSPI?SEEKFREE_18TFT
000D82H   000D84H   000003H   BYTE   UNIT     EDATA          ?ED?SEEKFREE_DL1A
000D85H   000D87H   000003H   BYTE   UNIT     EDATA          ?ED?DL1A_READ_CH?SEEKFREE_DL1A
000D88H   000D8AH   000003H   BYTE   UNIT     EDATA          ?ED?DL1A_SIMIIC_WRITE_REG?SEEKFREE_DL1A
000D8BH   000D8DH   000003H   BYTE   UNIT     EDATA          ?ED?DL1A_SIMIIC_READ_REG?SEEKFREE_DL1A
000D8EH   000D90H   000003H   BYTE   UNIT     EDATA          ?ED?DL1A_GET_VCSEL_PULSE_PERIOD?SEEKFREE_DL1A
000D91H   000D93H   000003H   BYTE   UNIT     EDATA          ?ED?DL1A_GET_DISTANCE?SEEKFREE_DL1A
000D94H   000D96H   000003H   BYTE   UNIT     EDATA          ?ED?DL1B_READ_CH?SEEKFREE_DL1B
000D97H   000D99H   000003H   BYTE   UNIT     EDATA          ?ED?IMU660RA_READ_REGISTER?SEEKFREE_IMU660RA
000D9AH   000D9CH   000003H   BYTE   UNIT     EDATA          ?ED?IPS114_WRITEDATAI_16BIT_SIMSPI?SEEKFREE_IPS114_SPI
000D9DH   000D9FH   000003H   BYTE   UNIT     EDATA          ?ED?MPU6050_READ_CH?SEEKFREE_MPU6050
000DA0H   000DA2H   000003H   BYTE   UNIT     EDATA          ?ED?MPU6050_SIMIIC_WRITE_REG?SEEKFREE_MPU6050
000DA3H   000DA5H   000003H   BYTE   UNIT     EDATA          ?ED?MPU6050_SIMIIC_READ_REG?SEEKFREE_MPU6050
000DA6H   000DA8H   000003H   BYTE   UNIT     EDATA          ?ED?OLED_FILL?SEEKFREE_OLED
000DA9H   000DABH   000003H   BYTE   UNIT     EDATA          ?ED?OLED_PUTPIXEL?SEEKFREE_OLED
000DACH   000DAEH   000003H   BYTE   UNIT     EDATA          ?ED?OLED_FILL_SPI?SEEKFREE_OLED
000DAFH   000DB1H   000003H   BYTE   UNIT     EDATA          ?ED?OLED_PUTPIXEL_SPI?SEEKFREE_OLED
000DB2H   000DB3H   000002H   BYTE   UNIT     EDATA          ?ED?COMMON
000DB4H   000DB5H   000002H   BYTE   UNIT     EDATA          ?ED?PWM_SET_GPIO?ZF_PWM
000DB6H   000DB7H   000002H   BYTE   UNIT     EDATA          ?ED?SPI_CHANGE_PIN?ZF_SPI
000DB8H   000DB9H   000002H   BYTE   UNIT     EDATA          ?ED?CTIMER_COUNT_INIT?ZF_TIM
000DBAH   000DBBH   000002H   BYTE   UNIT     EDATA          ?ED?CTIMER_COUNT_CLEAN?ZF_TIM
000DBCH   000DBDH   000002H   BYTE   UNIT     EDATA          ?ED?LCD_WRITEINDEX_SIMSPI?SEEKFREE_18TFT
000DBEH   000DBFH   000002H   BYTE   UNIT     EDATA          ?ED?LCD_WRITEDATA_SIMSPI?SEEKFREE_18TFT
000DC0H   000DC1H   000002H   BYTE   UNIT     EDATA          ?ED?DL1A_SIMIIC_DELAY?SEEKFREE_DL1A
000DC2H   000DC3H   000002H   BYTE   UNIT     EDATA          ?ED?DL1A_SEND_CH?SEEKFREE_DL1A
000DC4H   000DC5H   000002H   BYTE   UNIT     EDATA          ?ED?DL1A_DECODE_TIMEOUT?SEEKFREE_DL1A
000DC6H   000DC7H   000002H   BYTE   UNIT     EDATA          ?ED?DL1B_SIMIIC_DELAY?SEEKFREE_DL1B
000DC8H   000DC9H   000002H   BYTE   UNIT     EDATA          ?ED?DL1B_SEND_CH?SEEKFREE_DL1B
000DCAH   000DCBH   000002H   BYTE   UNIT     EDATA          ?ED?ICM20602_SIMSPI_WR_BYTE?SEEKFREE_ICM20602
000DCCH   000DCDH   000002H   BYTE   UNIT     EDATA          ?ED?ICM20602_SIMSPI_W_REG_BYTE?SEEKFREE_ICM20602
000DCEH   000DCFH   000002H   BYTE   UNIT     EDATA          ?ED?ICM20602_WRITE_REGISTER?SEEKFREE_ICM20602
000DD0H   000DD1H   000002H   BYTE   UNIT     EDATA          ?ED?ICM20602_READ_REGISTER?SEEKFREE_ICM20602
L251 LINKER/LOCATER V4.66.93.0                                                        03/12/2024  22:09:15  PAGE 7


000DD2H   000DD3H   000002H   BYTE   UNIT     EDATA          ?ED?IMU660RA_SIMSPI_WR_BYTE?SEEKFREE_IMU660RA
000DD4H   000DD5H   000002H   BYTE   UNIT     EDATA          ?ED?IMU660RA_SIMSPI_W_REG_BYTE?SEEKFREE_IMU660RA
000DD6H   000DD7H   000002H   BYTE   UNIT     EDATA          ?ED?IMU660RA_WRITE_REGISTER?SEEKFREE_IMU660RA
000DD8H   000DD9H   000002H   BYTE   UNIT     EDATA          ?ED?IMU963RA_SIMSPI_WR_BYTE?SEEKFREE_IMU963RA
000DDAH   000DDBH   000002H   BYTE   UNIT     EDATA          ?ED?IMU963RA_SIMSPI_W_REG_BYTE?SEEKFREE_IMU963RA
000DDCH   000DDDH   000002H   BYTE   UNIT     EDATA          ?ED?IMU963RA_WRITE_ACC_GYRO_REGISTER?SEEKFREE_IMU963RA
000DDEH   000DDFH   000002H   BYTE   UNIT     EDATA          ?ED?IMU963RA_READ_ACC_GYRO_REGISTER?SEEKFREE_IMU963RA
000DE0H   000DE1H   000002H   BYTE   UNIT     EDATA          ?ED?IMU963RA_CONNECT_MAG?SEEKFREE_IMU963RA
000DE2H   000DE3H   000002H   BYTE   UNIT     EDATA          ?ED?IPS114_WRITEINDEX_SIMSPI?SEEKFREE_IPS114_SPI
000DE4H   000DE5H   000002H   BYTE   UNIT     EDATA          ?ED?IPS114_WRITEDATA_SIMSPI?SEEKFREE_IPS114_SPI
000DE6H   000DE7H   000002H   BYTE   UNIT     EDATA          ?ED?MPU6050_SIMIIC_DELAY?SEEKFREE_MPU6050
000DE8H   000DE9H   000002H   BYTE   UNIT     EDATA          ?ED?MPU6050_SEND_CH?SEEKFREE_MPU6050
000DEAH   000DEBH   000002H   BYTE   UNIT     EDATA          ?ED?OLED_WRDAT?SEEKFREE_OLED
000DECH   000DEDH   000002H   BYTE   UNIT     EDATA          ?ED?OLED_WRCMD?SEEKFREE_OLED
000DEEH   000DEFH   000002H   BYTE   UNIT     EDATA          ?ED?OLED_SET_POS?SEEKFREE_OLED
000DF0H   000DF1H   000002H   BYTE   UNIT     EDATA          ?ED?OLED_CLRPIXEL?SEEKFREE_OLED
000DF2H   000DF3H   000002H   BYTE   UNIT     EDATA          ?ED?OLED_SET_POS_SPI?SEEKFREE_OLED
000DF4H   000DF5H   000002H   BYTE   UNIT     EDATA          ?ED?OLED_CLRPIXEL_SPI?SEEKFREE_OLED
000DF6H   000DF7H   000002H   BYTE   UNIT     EDATA          ?ED?DIRCONTROL?CONTROL
000DF8H   000DF8H   000001H   BYTE   UNIT     EDATA          ?ED?PUTCHAR?BOARD
000DF9H   000DF9H   000001H   BYTE   UNIT     EDATA          ?ED?IAP_SET_TPS?ZF_EEPROM
000DFAH   000DFAH   000001H   BYTE   UNIT     EDATA          ?ED?SPI_MOSI?ZF_SPI
000DFBH   000DFBH   000001H   BYTE   UNIT     EDATA          ?ED?SPI_CHANGE_MODE?ZF_SPI
000DFCH   000DFCH   000001H   BYTE   UNIT     EDATA          ?ED?LCD_WRITEINDEX?SEEKFREE_18TFT
000DFDH   000DFDH   000001H   BYTE   UNIT     EDATA          ?ED?LCD_WRITEDATA?SEEKFREE_18TFT
000DFEH   000DFEH   000001H   BYTE   UNIT     EDATA          ?ED?DL1A_SIMIIC_SENDACK?SEEKFREE_DL1A
000DFFH   000DFFH   000001H   BYTE   UNIT     EDATA          ?ED?DL1B_SIMIIC_SENDACK?SEEKFREE_DL1B
000E00H   000E00H   000001H   BYTE   UNIT     EDATA          ?ED?IMU660RA_INIT?SEEKFREE_IMU660RA
000E01H   000E01H   000001H   BYTE   UNIT     EDATA          ?ED?IMU963RA_INIT?SEEKFREE_IMU963RA
000E02H   000E02H   000001H   BYTE   UNIT     EDATA          ?ED?IPS114_WRITEINDEX?SEEKFREE_IPS114_SPI
000E03H   000E03H   000001H   BYTE   UNIT     EDATA          ?ED?IPS114_WRITEDATA?SEEKFREE_IPS114_SPI
000E04H   000E04H   000001H   BYTE   UNIT     EDATA          ?ED?MPU6050_SIMIIC_SENDACK?SEEKFREE_MPU6050
000E05H   000E05H   000001H   BYTE   UNIT     EDATA          ?ED?OLED_WRDAT_SPI?SEEKFREE_OLED
000E06H   000E06H   000001H   BYTE   UNIT     EDATA          ?ED?OLED_WRCMD_SPI?SEEKFREE_OLED
000E07H   000E07H   000001H   BYTE   UNIT     EDATA          ?ED?UART1_ISR?ISR
000E08H   000E08H   000001H   BYTE   UNIT     EDATA          ?ED?ISR
000E09H   000E09H   000001H   BYTE   UNIT     EDATA          ?ED?SIMPLENORREAD?INDUCTANCE
000E0AH   000E0AH   000001H   BYTE   UNIT     EDATA          ?ED?MY_CENTER_MAG?INDUCTANCE
000E0BH   000F0AH   000100H   BYTE   UNIT     EDATA          ?STACK
000F0BH   FEFFFFH   FEF0F5H   ---    ---      **GAP**
FF0000H   FF0002H   000003H   ---    OFFS..   CODE           ?CO?start251?4
FF0003H   FF0005H   000003H   ---    OFFS..   CODE           ?PR?IV?0
FF0006H   FF0009H   000004H   BYTE   INSEG    CODE           ?PR?ENABLEGLOBALIRQ?BOARD
FF000AH   FF000AH   000001H   BYTE   INSEG    CODE           ?PR?INT1_ISR?ISR
FF000BH   FF000DH   000003H   ---    OFFS..   CODE           ?PR?IV?1
FF000EH   FF000EH   000001H   BYTE   INSEG    CODE           ?PR?TM0_ISR?ISR
FF000FH   FF000FH   000001H   BYTE   INSEG    CODE           ?PR?TM1_ISR?ISR
FF0010H   FF0012H   000003H   ---    ---      **GAP**
FF0013H   FF0015H   000003H   ---    OFFS..   CODE           ?PR?IV?2
FF0016H   FF0019H   000004H   BYTE   UNIT     CONST          ?CO?PRINTF
FF001AH   FF001AH   000001H   ---    ---      **GAP**
FF001BH   FF001DH   000003H   ---    OFFS..   CODE           ?PR?IV?3
FF001EH   FF0022H   000005H   ---    ---      **GAP**
FF0023H   FF0025H   000003H   ---    OFFS..   CODE           ?PR?IV?4
FF0026H   FF0042H   00001DH   BYTE   INSEG    CODE           ?PR?DL1A_SIMIIC_DELAY?SEEKFREE_DL1A
FF0043H   FF0045H   000003H   ---    OFFS..   CODE           ?PR?IV?8
FF0046H   FF0052H   00000DH   BYTE   INSEG    CODE           ?PR?ENCODER_INIT?ENCODER
FF0053H   FF0055H   000003H   ---    OFFS..   CODE           ?PR?IV?10
FF0056H   FF005AH   000005H   ---    ---      **GAP**
FF005BH   FF005DH   000003H   ---    OFFS..   CODE           ?PR?IV?11
FF005EH   FF0062H   000005H   ---    ---      **GAP**
FF0063H   FF0065H   000003H   ---    OFFS..   CODE           ?PR?IV?12
FF0066H   FF0082H   00001DH   BYTE   INSEG    CODE           ?PR?DL1B_SIMIIC_DELAY?SEEKFREE_DL1B
FF0083H   FF0085H   000003H   ---    OFFS..   CODE           ?PR?IV?16
FF0086H   FF008AH   000005H   ---    ---      **GAP**
L251 LINKER/LOCATER V4.66.93.0                                                        03/12/2024  22:09:15  PAGE 8


FF008BH   FF008DH   000003H   ---    OFFS..   CODE           ?PR?IV?17
FF008EH   FF0092H   000005H   ---    ---      **GAP**
FF0093H   FF0095H   000003H   ---    OFFS..   CODE           ?PR?IV?18
FF0096H   FF009AH   000005H   ---    ---      **GAP**
FF009BH   FF009DH   000003H   ---    OFFS..   CODE           ?PR?IV?19
FF009EH   FF00A2H   000005H   ---    ---      **GAP**
FF00A3H   FF00A5H   000003H   ---    OFFS..   CODE           ?PR?IV?20
FF00A6H   FF212CH   002087H   BYTE   UNIT     CODE           ?CO?SEEKFREE_CONFIG
FF212DH   FF2F34H   000E08H   BYTE   UNIT     CODE           ?CO?SEEKFREE_FONT
FF2F35H   FF3984H   000A50H   BYTE   UNIT     CODE           ?C?LIB_CODE
FF3985H   FF4291H   00090DH   BYTE   INSEG    CODE           ?PR?GPIO_MODE?ZF_GPIO
FF4292H   FF48F2H   000661H   BYTE   INSEG    CODE           ?PR?ZF_SPRINTF?SEEKFREE_PRINTF
FF48F3H   FF4CCCH   0003DAH   BYTE   INSEG    CODE           ?PR?PWM_INIT?ZF_PWM
FF4CCDH   FF5084H   0003B8H   BYTE   INSEG    CODE           ?PR?PWM_SET_GPIO?ZF_PWM
FF5085H   FF541DH   000399H   BYTE   INSEG    CODE           ?PR?INDUCTORREAD?INDUCTANCE
FF541EH   FF57AFH   000392H   BYTE   INSEG    CODE           ?PR?FIFO_WRITE_BUFFER?ZF_FIFO
FF57B0H   FF5A61H   0002B2H   BYTE   INSEG    CODE           ?PR?UART_INIT?ZF_UART
FF5A62H   FF5C67H   000206H   BYTE   INSEG    CODE           ?PR?SET_CLK?BOARD
FF5C68H   FF5E32H   0001CBH   BYTE   INSEG    CODE           ?PR?SCREEN_PID_MINDECREASE?SCREEN
FF5E33H   FF5FFDH   0001CBH   BYTE   INSEG    CODE           ?PR?SCREEN_PID_MAXDECREASE?SCREEN
FF5FFEH   FF61C8H   0001CBH   BYTE   INSEG    CODE           ?PR?SCREEN_PID_MININCREASE?SCREEN
FF61C9H   FF6393H   0001CBH   BYTE   INSEG    CODE           ?PR?SCREEN_PID_MAXINCREASE?SCREEN
FF6394H   FF6527H   000194H   BYTE   INSEG    CODE           ?PR?MY_CENTER_MAG?INDUCTANCE
FF6528H   FF66B0H   000189H   BYTE   INSEG    CODE           ?PR?PID_INCREASE?PID
FF66B1H   FF6824H   000174H   BYTE   INSEG    CODE           ?PR?IPS114_INIT?SEEKFREE_IPS114_SPI
FF6825H   FF698DH   000169H   BYTE   INSEG    CODE           ?PR?DL1A_GET_SEQUENCE_STEP_TIMEOUTS?SEEKFREE_DL1A
FF698EH   FF6AEDH   000160H   BYTE   INSEG    CODE           ?PR?SCREEN_CHOOSE_PAGE?SCREEN
FF6AEEH   FF6C38H   00014BH   BYTE   INSEG    CODE           ?PR?MAIN?MAIN
FF6C39H   FF6D82H   00014AH   BYTE   INSEG    CODE           ?PR?PID_CTRL2?CONTROL
FF6D83H   FF6EC7H   000145H   BYTE   INSEG    CODE           ?PR?IPS114_SHOWFLOAT?SEEKFREE_IPS114_SPI
FF6EC8H   FF6FEEH   000127H   BYTE   INSEG    CODE           ?PR?KEY_SCAN?KEY
FF6FEFH   FF7106H   000118H   BYTE   INSEG    CODE           ?PR?PWM_DUTY?ZF_PWM
FF7107H   FF721DH   000117H   BYTE   INSEG    CODE           ?PR?NUMBER_CONVERSION_ASCII?SEEKFREE_PRINTF
FF721EH   FF7302H   0000E5H   BYTE   INSEG    CODE           ?PR?PIT_TIMER_MS?ZF_TIM
FF7303H   FF73D7H   0000D5H   BYTE   INSEG    CODE           ?PR?PID_INC_INIT?PID
FF73D8H   FF74A5H   0000CEH   BYTE   INSEG    CODE           ?PR?SPI_INIT?ZF_SPI
FF74A6H   FF7570H   0000CBH   BYTE   INSEG    CODE           ?PR?KEY_SCREEN?KEY
FF7571H   FF762FH   0000BFH   BYTE   INSEG    CODE           ?PR?IPS114_SHOWCHAR?SEEKFREE_IPS114_SPI
FF7630H   FF76E4H   0000B5H   BYTE   INSEG    CODE           ?PR?ADC_INIT?ZF_ADC
FF76E5H   FF7798H   0000B4H   BYTE   INSEG    CODE           ?PR?CTIMER_COUNT_READ?ZF_TIM
FF7799H   FF784AH   0000B2H   BYTE   INSEG    CODE           ?PR?MOTOR_CTRL?MOTOR
FF784BH   FF78EFH   0000A5H   BYTE   INSEG    CODE           ?PR?SIMPLENORREAD?INDUCTANCE
FF78F0H   FF798AH   00009BH   BYTE   INSEG    CODE           ?PR?KEY_INIT?KEY
FF798BH   FF7A21H   000097H   BYTE   INSEG    CODE           ?PR?BOARD_INIT?BOARD
FF7A22H   FF7AB6H   000095H   BYTE   INSEG    CODE           ?PR?GPIO_PULL_SET?ZF_GPIO
FF7AB7H   FF7B4BH   000095H   BYTE   INSEG    CODE           ?PR?PRINTF_REVERSE_ORDER?SEEKFREE_PRINTF
FF7B4CH   FF7BD9H   00008EH   BYTE   INSEG    CODE           ?PR?DL1A_GET_SEQUENCE_STEP_ENABLES?SEEKFREE_DL1A
FF7BDAH   FF7C58H   00007FH   BYTE   INSEG    CODE           ?PR?DL1A_ENCODE_TIMEOUT?SEEKFREE_DL1A
FF7C59H   FF7CD2H   00007AH   BYTE   INSEG    CODE           ?PR?DL1A_GET_VCSEL_PULSE_PERIOD?SEEKFREE_DL1A
FF7CD3H   FF7D47H   000075H   BYTE   INSEG    CODE           ?PR?UART_PUTCHAR?ZF_UART
FF7D48H   FF7DBAH   000073H   BYTE   INSEG    CODE           ?PR?UART4_ISR?ISR
FF7DBBH   FF7E2AH   000070H   BYTE   INSEG    CODE           ?PR?FIFO_HEAD_OFFSET?ZF_FIFO
FF7E2BH   FF7E98H   00006EH   BYTE   INSEG    CODE           ?PR?DIRCONTROL?CONTROL
FF7E99H   FF7F04H   00006CH   BYTE   INSEG    CODE           ?PR?IMU963RA_READ_MAG_REGISTER?SEEKFREE_IMU963RA
FF7F05H   FF7F6EH   00006AH   BYTE   INSEG    CODE           ?PR?DL1A_READ_CH?SEEKFREE_DL1A
FF7F6FH   FF7FD8H   00006AH   BYTE   INSEG    CODE           ?PR?DL1B_READ_CH?SEEKFREE_DL1B
FF7FD9H   FF8040H   000068H   BYTE   INSEG    CODE           ?PR?DL1A_SIMIIC_READ_REGS?SEEKFREE_DL1A
FF8041H   FF80A4H   000064H   BYTE   INSEG    CODE           ?PR?LCD_SET_REGION_SIMSPI?SEEKFREE_18TFT
FF80A5H   FF8108H   000064H   BYTE   INSEG    CODE           ?PR?LCD_SET_REGION?SEEKFREE_18TFT
FF8109H   FF8167H   00005FH   BYTE   INSEG    CODE           ?PR?IPS114_CLEAR?SEEKFREE_IPS114_SPI
FF8168H   FF81C4H   00005DH   BYTE   INSEG    CODE           ?PR?CTIMER_COUNT_CLEAN?ZF_TIM
FF81C5H   FF8221H   00005DH   BYTE   INSEG    CODE           ?PR?IPS114_SHOWSTR?SEEKFREE_IPS114_SPI
FF8222H   FF827AH   000059H   BYTE   INSEG    CODE           ?PR?ICM20602_SIMSPI_WR_BYTE?SEEKFREE_ICM20602
FF827BH   FF82D3H   000059H   BYTE   INSEG    CODE           ?PR?IMU660RA_SIMSPI_WR_BYTE?SEEKFREE_IMU660RA
FF82D4H   FF832CH   000059H   BYTE   INSEG    CODE           ?PR?IMU963RA_SIMSPI_WR_BYTE?SEEKFREE_IMU963RA
L251 LINKER/LOCATER V4.66.93.0                                                        03/12/2024  22:09:15  PAGE 9


FF832DH   FF8385H   000059H   BYTE   INSEG    CODE           ?PR?SCREEN_CHOOSE_PID?SCREEN
FF8386H   FF83DBH   000056H   BYTE   INSEG    CODE           ?PR?ADC_ONCE?ZF_ADC
FF83DCH   FF8430H   000055H   BYTE   INSEG    CODE           ?PR?LCD_WRITEDATA_16BIT_SIMSPI?SEEKFREE_18TFT
FF8431H   FF8485H   000055H   BYTE   INSEG    CODE           ?PR?IPS114_WRITEDATAI_16BIT_SIMSPI?SEEKFREE_IPS114_SPI
FF8486H   FF84D9H   000054H   BYTE   INSEG    CODE           ?PR?CTIMER_COUNT_INIT?ZF_TIM
FF84DAH   FF852DH   000054H   BYTE   INSEG    CODE           ?PR?IPS114_SET_REGION?SEEKFREE_IPS114_SPI
FF852EH   FF8580H   000053H   BYTE   INSEG    CODE           ?PR?DL1A_TIMEOUT_MCLKS_TO_MICROSECONDS?SEEKFREE_DL1A
FF8581H   FF85D1H   000051H   BYTE   INSEG    CODE           ?PR?DL1A_TIMEOUT_MICROSECONDS_TO_MCLKS?SEEKFREE_DL1A
FF85D2H   FF8622H   000051H   BYTE   INSEG    CODE           ?PR?ICM20602_SIMSPI_R_REG_BYTES?SEEKFREE_ICM20602
FF8623H   FF8671H   00004FH   BYTE   INSEG    CODE           ?PR?PID_ALL_INIT?PID
FF8672H   FF86BDH   00004CH   BYTE   INSEG    CODE           ?PR?LCD_WRITEINDEX_SIMSPI?SEEKFREE_18TFT
FF86BEH   FF8709H   00004CH   BYTE   INSEG    CODE           ?PR?LCD_WRITEDATA_SIMSPI?SEEKFREE_18TFT
FF870AH   FF8755H   00004CH   BYTE   INSEG    CODE           ?PR?IPS114_WRITEINDEX_SIMSPI?SEEKFREE_IPS114_SPI
FF8756H   FF87A1H   00004CH   BYTE   INSEG    CODE           ?PR?OLED_WRCMD?SEEKFREE_OLED
FF87A2H   FF87EDH   00004CH   BYTE   INSEG    CODE           ?PR?OLED_WRDAT?SEEKFREE_OLED
FF87EEH   FF8838H   00004BH   BYTE   INSEG    CODE           ?PR?IMU660RA_SIMSPI_R_REG_BYTES?SEEKFREE_IMU660RA
FF8839H   FF8881H   000049H   BYTE   INSEG    CODE           ?PR?DL1A_SEND_CH?SEEKFREE_DL1A
FF8882H   FF88CAH   000049H   BYTE   INSEG    CODE           ?PR?DL1B_SEND_CH?SEEKFREE_DL1B
FF88CBH   FF8910H   000046H   BYTE   INSEG    CODE           ?PR?UART1_ISR?ISR
FF8911H   FF8952H   000042H   BYTE   INSEG    CODE           ?PR?DL1A_SIMIIC_WRITE_DATS?SEEKFREE_DL1A
FF8953H   FF8993H   000041H   BYTE   INSEG    CODE           ?PR?DELAY_INIT?ZF_DELAY
FF8994H   FF89D3H   000040H   BYTE   INSEG    CODE           ?PR?ADCS_INIT?ADC
FF89D4H   FF8A12H   00003FH   BYTE   INSEG    CODE           ?PR?MOTOR_INIT?MOTOR
FF8A13H   FF8A25H   000013H   BYTE   UNIT     CODE           ?C_C51STARTUP
FF8A26H   FF8A4EH   000029H   BYTE   UNIT     CODE           ?C_C51STARTUP?2
FF8A4FH   FF8A51H   000003H   BYTE   UNIT     CODE           ?C_C51STARTUP?3
FF8A52H   FF8A8DH   00003CH   BYTE   INSEG    CODE           ?PR?TM2_ISR?ISR
FF8A8EH   FF8AC3H   000036H   BYTE   INSEG    CODE           ?PR?OLED_SET_POS_SPI?SEEKFREE_OLED
FF8AC4H   FF8AF8H   000035H   BYTE   INSEG    CODE           ?PR?DELAY_MS?ZF_DELAY
FF8AF9H   FF8B2DH   000035H   BYTE   INSEG    CODE           ?PR?OLED_SET_POS?SEEKFREE_OLED
FF8B2EH   FF8B5AH   00002DH   BYTE   INSEG    CODE           ?PR?IMU963RA_SIMSPI_R_REG_BYTE?SEEKFREE_IMU963RA
FF8B5BH   FF8B87H   00002DH   BYTE   INSEG    CODE           ?PR?ENCODER_SPEED?ENCODER
FF8B88H   FF8BB1H   00002AH   BYTE   INSEG    CODE           ?PR?LCD_WRITEDATA_16BIT?SEEKFREE_18TFT
FF8BB2H   FF8BDBH   00002AH   BYTE   INSEG    CODE           ?PR?DL1A_DECODE_TIMEOUT?SEEKFREE_DL1A
FF8BDCH   FF8C05H   00002AH   BYTE   INSEG    CODE           ?PR?IPS114_WRITEDATA_16BIT?SEEKFREE_IPS114_SPI
FF8C06H   FF8C2DH   000028H   BYTE   INSEG    CODE           ?PR?DL1A_SIMIIC_SENDACK?SEEKFREE_DL1A
FF8C2EH   FF8C55H   000028H   BYTE   INSEG    CODE           ?PR?DL1B_SIMIIC_SENDACK?SEEKFREE_DL1B
FF8C56H   FF8C7DH   000028H   BYTE   INSEG    CODE           ?PR?MPU6050_SIMIIC_SENDACK?SEEKFREE_MPU6050
FF8C7EH   FF8CA4H   000027H   BYTE   INSEG    CODE           ?PR?ICM20602_SIMSPI_R_REG_BYTE?SEEKFREE_ICM20602
FF8CA5H   FF8CC9H   000025H   BYTE   INSEG    CODE           ?PR?MEMCPY?_?MEMCPY
FF8CCAH   FF8CEDH   000024H   BYTE   INSEG    CODE           ?PR?ALL_INIT?ALL_INIT
FF8CEEH   FF8D10H   000023H   BYTE   INSEG    CODE           ?PR?IMU963RA_READ_ACC_GYRO_REGISTER?SEEKFREE_IMU963RA
FF8D11H   FF8D32H   000022H   BYTE   INSEG    CODE           ?PR?IMU660RA_READ_REGISTER?SEEKFREE_IMU660RA
FF8D33H   FF8D53H   000021H   BYTE   INSEG    CODE           ?PR?DL1A_SCCB_WAITACK?SEEKFREE_DL1A
FF8D54H   FF8D74H   000021H   BYTE   INSEG    CODE           ?PR?DL1B_SCCB_WAITACK?SEEKFREE_DL1B
FF8D75H   FF8D95H   000021H   BYTE   INSEG    CODE           ?PR?IMU963RA_SIMSPI_W_REG_BYTE?SEEKFREE_IMU963RA
FF8D96H   FF8DB3H   00001EH   BYTE   INSEG    CODE           ?PR?ICM20602_READ_REGISTER?SEEKFREE_ICM20602
FF8DB4H   FF8DD1H   00001EH   BYTE   INSEG    CODE           ?PR?UART2_ISR?ISR
FF8DD2H   FF8DEFH   00001EH   BYTE   INSEG    CODE           ?PR?UART3_ISR?ISR
FF8DF0H   FF8E0CH   00001DH   BYTE   INSEG    CODE           ?PR?MPU6050_SIMIIC_DELAY?SEEKFREE_MPU6050
FF8E0DH   FF8E27H   00001BH   BYTE   INSEG    CODE           ?PR?MOTOR_SET_PWM?CONTROL
FF8E28H   FF8E41H   00001AH   BYTE   INSEG    CODE           ?PR?BLUETOOTH_CH9141_UART_CALLBACK?SEEKFREE_BLUETOOTH_CH91
                                                             -41
FF8E42H   FF8E5BH   00001AH   BYTE   INSEG    CODE           ?PR?IMU963RA_WRITE_ACC_GYRO_REGISTER?SEEKFREE_IMU963RA
FF8E5CH   FF8E75H   00001AH   BYTE   INSEG    CODE           ?PR?WIRELESS_UART_CALLBACK?SEEKFREE_WIRELESS
FF8E76H   FF8E8FH   00001AH   BYTE   INSEG    CODE           ?PR?WIRELESS_CH573_CALLBACK?SEEKFREE_WIRELESS_CH573
FF8E90H   FF8EA7H   000018H   BYTE   INSEG    CODE           ?PR?BEEP_INIT?BEEP
FF8EA8H   FF8EBDH   000016H   BYTE   INSEG    CODE           ?PR?DL1A_SIMIIC_STOP?SEEKFREE_DL1A
FF8EBEH   FF8ED3H   000016H   BYTE   INSEG    CODE           ?PR?MPU6050_SIMIIC_STOP?SEEKFREE_MPU6050
FF8ED4H   FF8EE8H   000015H   BYTE   INSEG    CODE           ?PR?LCD_WRITEINDEX?SEEKFREE_18TFT
FF8EE9H   FF8EFDH   000015H   BYTE   INSEG    CODE           ?PR?LCD_WRITEDATA?SEEKFREE_18TFT
FF8EFEH   FF8F12H   000015H   BYTE   INSEG    CODE           ?PR?IPS114_WRITEINDEX?SEEKFREE_IPS114_SPI
FF8F13H   FF8F27H   000015H   BYTE   INSEG    CODE           ?PR?IPS114_WRITEDATA?SEEKFREE_IPS114_SPI
FF8F28H   FF8F3CH   000015H   BYTE   INSEG    CODE           ?PR?OLED_WRCMD_SPI?SEEKFREE_OLED
FF8F3DH   FF8F51H   000015H   BYTE   INSEG    CODE           ?PR?OLED_WRDAT_SPI?SEEKFREE_OLED
L251 LINKER/LOCATER V4.66.93.0                                                        03/12/2024  22:09:15  PAGE 10


FF8F52H   FF8F64H   000013H   BYTE   INSEG    CODE           ?PR?DL1A_SIMIIC_START?SEEKFREE_DL1A
FF8F65H   FF8F77H   000013H   BYTE   INSEG    CODE           ?PR?MPU6050_SIMIIC_START?SEEKFREE_MPU6050
FF8F78H   FF8F89H   000012H   BYTE   INSEG    CODE           ?PR?PUTCHAR?BOARD
FF8F8AH   FF8F9BH   000012H   BYTE   INSEG    CODE           ?PR?SPI_MOSI?ZF_SPI
FF8F9CH   FF8FA6H   00000BH   BYTE   INSEG    CODE           ?PR?SCREEN_INIT?SCREEN
FF8FA7H   FF8FAEH   000008H   BYTE   INSEG    CODE           ?PR?INT0_ISR?ISR
FF8FAFH   FF8FB6H   000008H   BYTE   INSEG    CODE           ?PR?INT2_ISR?ISR
FF8FB7H   FF8FBEH   000008H   BYTE   INSEG    CODE           ?PR?INT3_ISR?ISR
FF8FBFH   FF8FC6H   000008H   BYTE   INSEG    CODE           ?PR?INT4_ISR?ISR
FF8FC7H   FF8FCEH   000008H   BYTE   INSEG    CODE           ?PR?TM3_ISR?ISR
FF8FCFH   FF8FD6H   000008H   BYTE   INSEG    CODE           ?PR?TM4_ISR?ISR
FF8FD7H   FF91A4H   0001CEH   BYTE   UNIT     HCONST         ?C_INITEDATA
FF91A5H   FF91FCH   000058H   BYTE   UNIT     HCONST         ?HC?ZF_PWM
FF91FDH   FF9247H   00004BH   BYTE   UNIT     HCONST         ?HC?SEEKFREE_IMU963RA
FF9248H   FF927BH   000034H   BYTE   UNIT     HCONST         ?HC?SEEKFREE_IMU660RA
FF927CH   FF92AEH   000033H   BYTE   UNIT     HCONST         ?HC?SEEKFREE_ICM20602
FF92AFH   FF92C4H   000016H   BYTE   UNIT     HCONST         ?HC?SEEKFREE_MPU6050
FF92C5H   FF92D7H   000013H   BYTE   UNIT     HCONST         ?HC?SEEKFREE_DL1A
FF92D8H   FF92E5H   00000EH   BYTE   UNIT     HCONST         ?HC?INDUCTANCE
FF92E6H   FF92EFH   00000AH   BYTE   UNIT     HCONST         ?HC?SEEKFREE_OLED
FF92F0H   FF92F8H   000009H   BYTE   UNIT     HCONST         ?HC?SCREEN
FF92F9H   FF92FEH   000006H   BYTE   UNIT     HCONST         ?HC?SEEKFREE_18TFT
FF92FFH   FF9304H   000006H   BYTE   UNIT     HCONST         ?HC?SEEKFREE_IPS114_SPI

* * * * * * * * *   R E M O V E D     S E G M E N T S   * * * * * * * *
   *DEL*:           000004H   BYTE   INSEG    CODE           ?PR?DISABLEGLOBALIRQ?BOARD
   *DEL*:           000033H   BYTE   INSEG    CODE           ?PR?DELAY_US?ZF_DELAY
   *DEL*:           00001AH   BYTE   INSEG    CODE           ?PR?IAP_SET_TPS?ZF_EEPROM
   *DEL*:           000015H   BYTE   INSEG    CODE           ?PR?EEPROM_TRIG?ZF_EEPROM
   *DEL*:           000029H   BYTE   INSEG    CODE           ?PR?IAP_ERASE_PAGE?ZF_EEPROM
   *DEL*:           000004H   BYTE   INSEG    CODE           ?PR?IAP_IDLE?ZF_EEPROM
   *DEL*:           000062H   BYTE   INSEG    CODE           ?PR?IAP_READ_BYTES?ZF_EEPROM
   *DEL*:           000008H   BYTE   INSEG    CODE           ?PR?IAP_INIT?ZF_EEPROM
   *DEL*:           00005EH   BYTE   INSEG    CODE           ?PR?IAP_WRITE_BYTES?ZF_EEPROM
   *DEL*:           000012H   BYTE   INSEG    CODE           ?PR?IAP_GET_CMD_STATE?ZF_EEPROM
   *DEL*:           000066H   BYTE   INSEG    CODE           ?PR?EXIT_INIT?ZF_EXTI
   *DEL*:           0000B9H   BYTE   INSEG    CODE           ?PR?NVIC_SETPRIORITY?ZF_NVIC
   *DEL*:           0001ABH   BYTE   INSEG    CODE           ?PR?PWM_FREQ?ZF_PWM
   *DEL*:           000026H   BYTE   INSEG    CODE           ?PR?SPI_CHANGE_MODE?ZF_SPI
   *DEL*:           0000CCH   BYTE   INSEG    CODE           ?PR?SPI_CHANGE_PIN?ZF_SPI
   *DEL*:           000033H   BYTE   INSEG    CODE           ?PR?UART_PUTBUFF?ZF_UART
   *DEL*:           00002BH   BYTE   INSEG    CODE           ?PR?UART_PUTSTR?ZF_UART
   *DEL*:           0003ACH   BYTE   INSEG    CODE           ?PR?FIFO_READ_BUFFER?ZF_FIFO
   *DEL*:           00013BH   BYTE   INSEG    CODE           ?PR?FIFO_WRITE_ELEMENT?ZF_FIFO
   *DEL*:           000434H   BYTE   INSEG    CODE           ?PR?FIFO_READ_TAIL_BUFFER?ZF_FIFO
   *DEL*:           0000EAH   BYTE   INSEG    CODE           ?PR?FIFO_CLEAR?ZF_FIFO
   *DEL*:           000070H   BYTE   INSEG    CODE           ?PR?FIFO_END_OFFSET?ZF_FIFO
   *DEL*:           000025H   BYTE   INSEG    CODE           ?PR?FIFO_USED?ZF_FIFO
   *DEL*:           000083H   BYTE   INSEG    CODE           ?PR?FIFO_INIT?ZF_FIFO
   *DEL*:           00018BH   BYTE   INSEG    CODE           ?PR?FIFO_READ_ELEMENT?ZF_FIFO
   *DEL*:           0000CDH   BYTE   INSEG    CODE           ?PR?LCD_SHOWUINT16?SEEKFREE_18TFT
   *DEL*:           0000CEH   BYTE   INSEG    CODE           ?PR?LCD_SHOWINT32_SIMSPI?SEEKFREE_18TFT
   *DEL*:           000119H   BYTE   INSEG    CODE           ?PR?LCD_SHOWINT16_SIMSPI?SEEKFREE_18TFT
   *DEL*:           0000CEH   BYTE   INSEG    CODE           ?PR?LCD_SHOWINT32?SEEKFREE_18TFT
   *DEL*:           000119H   BYTE   INSEG    CODE           ?PR?LCD_SHOWINT16?SEEKFREE_18TFT
   *DEL*:           000057H   BYTE   INSEG    CODE           ?PR?LCD_CLEAR_SIMSPI?SEEKFREE_18TFT
   *DEL*:           000057H   BYTE   INSEG    CODE           ?PR?LCD_CLEAR?SEEKFREE_18TFT
   *DEL*:           00005DH   BYTE   INSEG    CODE           ?PR?LCD_SHOWSTR_SIMSPI?SEEKFREE_18TFT
   *DEL*:           00005DH   BYTE   INSEG    CODE           ?PR?LCD_SHOWSTR?SEEKFREE_18TFT
   *DEL*:           0001FDH   BYTE   INSEG    CODE           ?PR?LCD_INIT_SIMSPI?SEEKFREE_18TFT
   *DEL*:           0000ECH   BYTE   INSEG    CODE           ?PR?SHOWIMAGE?SEEKFREE_18TFT
   *DEL*:           0001F3H   BYTE   INSEG    CODE           ?PR?LCD_INIT?SEEKFREE_18TFT
   *DEL*:           0000A9H   BYTE   INSEG    CODE           ?PR?LCD_SHOWUINT8_SIMSPI?SEEKFREE_18TFT
   *DEL*:           0000A9H   BYTE   INSEG    CODE           ?PR?LCD_SHOWUINT8?SEEKFREE_18TFT
   *DEL*:           0000EBH   BYTE   INSEG    CODE           ?PR?LCD_SHOWINT8_SIMSPI?SEEKFREE_18TFT
L251 LINKER/LOCATER V4.66.93.0                                                        03/12/2024  22:09:15  PAGE 11


   *DEL*:           0000EBH   BYTE   INSEG    CODE           ?PR?LCD_SHOWINT8?SEEKFREE_18TFT
   *DEL*:           000145H   BYTE   INSEG    CODE           ?PR?LCD_SHOWFLOAT_SIMSPI?SEEKFREE_18TFT
   *DEL*:           000023H   BYTE   INSEG    CODE           ?PR?LCD_DRAWPOINT_SIMSPI?SEEKFREE_18TFT
   *DEL*:           000145H   BYTE   INSEG    CODE           ?PR?LCD_SHOWFLOAT?SEEKFREE_18TFT
   *DEL*:           000023H   BYTE   INSEG    CODE           ?PR?LCD_DRAWPOINT?SEEKFREE_18TFT
   *DEL*:           0000BFH   BYTE   INSEG    CODE           ?PR?LCD_SHOWCHAR_SIMSPI?SEEKFREE_18TFT
   *DEL*:           0000BFH   BYTE   INSEG    CODE           ?PR?LCD_SHOWCHAR?SEEKFREE_18TFT
   *DEL*:           0000CDH   BYTE   INSEG    CODE           ?PR?LCD_SHOWUINT16_SIMSPI?SEEKFREE_18TFT
   *DEL*:           00002EH   BYTE   INSEG    CODE           ?PR?BLUETOOTH_CH9141_READ_BUFF?SEEKFREE_BLUETOOTH_CH9141
   *DEL*:           0000D4H   BYTE   INSEG    CODE           ?PR?BLUETOOTH_CH9141_SEND_BUFF?SEEKFREE_BLUETOOTH_CH9141
   *DEL*:           000042H   BYTE   INSEG    CODE           ?PR?BLUETOOTH_CH9141_INIT?SEEKFREE_BLUETOOTH_CH9141
   *DEL*:           00003EH   BYTE   INSEG    CODE           ?PR?DL1A_SET_SIGNAL_RATE_LIMIT?SEEKFREE_DL1A
   *DEL*:           000195H   BYTE   INSEG    CODE           ?PR?DL1A_GET_SPAD_INFO?SEEKFREE_DL1A
   *DEL*:           00006CH   BYTE   INSEG    CODE           ?PR?DL1A_GET_DISTANCE?SEEKFREE_DL1A
   *DEL*:           0000ABH   BYTE   INSEG    CODE           ?PR?DL1A_PERFORM_SINGLE_REF_CALIBRATION?SEEKFREE_DL1A
   *DEL*:           0000B6H   BYTE   INSEG    CODE           ?PR?DL1A_GET_MEASUREMENT_TIMING_BUDGET?SEEKFREE_DL1A
   *DEL*:           00003BH   BYTE   INSEG    CODE           ?PR?DL1A_SIMIIC_READ_REG?SEEKFREE_DL1A
   *DEL*:           000068H   BYTE   INSEG    CODE           ?PR?DL1A_SIMIIC_READ_REGS_1?SEEKFREE_DL1A
   *DEL*:           000149H   BYTE   INSEG    CODE           ?PR?DL1A_SET_MEASUREMENT_TIMING_BUDGET?SEEKFREE_DL1A
   *DEL*:           00002AH   BYTE   INSEG    CODE           ?PR?DL1A_SIMIIC_WRITE_REG?SEEKFREE_DL1A
   *DEL*:           0006AEH   BYTE   INSEG    CODE           ?PR?DL1A_INIT?SEEKFREE_DL1A
   *DEL*:           000079H   BYTE   INSEG    CODE           ?PR?DL1B_IIC_TRANSFER_8BIT_ARRAY?SEEKFREE_DL1B
   *DEL*:           000133H   BYTE   INSEG    CODE           ?PR?DL1B_GET_DISTANCE?SEEKFREE_DL1B
   *DEL*:           000013H   BYTE   INSEG    CODE           ?PR?DL1B_SIMIIC_START?SEEKFREE_DL1B
   *DEL*:           000016H   BYTE   INSEG    CODE           ?PR?DL1B_SIMIIC_STOP?SEEKFREE_DL1B
   *DEL*:           000112H   BYTE   INSEG    CODE           ?PR?DL1B_INIT?SEEKFREE_DL1B
   *DEL*:           00008DH   BYTE   INSEG    CODE           ?PR?ICM20602_GYRO_TRANSITION?SEEKFREE_ICM20602
   *DEL*:           00001AH   BYTE   INSEG    CODE           ?PR?ICM20602_WRITE_REGISTER?SEEKFREE_ICM20602
   *DEL*:           00004EH   BYTE   INSEG    CODE           ?PR?ICM20602_SELF_CHECK?SEEKFREE_ICM20602
   *DEL*:           00001BH   BYTE   INSEG    CODE           ?PR?ICM20602_SIMSPI_W_REG_BYTE?SEEKFREE_ICM20602
   *DEL*:           0000C2H   BYTE   INSEG    CODE           ?PR?ICM20602_INIT?SEEKFREE_ICM20602
   *DEL*:           000050H   BYTE   INSEG    CODE           ?PR?ICM20602_GET_ACC?SEEKFREE_ICM20602
   *DEL*:           000089H   BYTE   INSEG    CODE           ?PR?ICM20602_ACC_TRANSITION?SEEKFREE_ICM20602
   *DEL*:           000026H   BYTE   INSEG    CODE           ?PR?ICM20602_READ_REGISTERS?SEEKFREE_ICM20602
   *DEL*:           000050H   BYTE   INSEG    CODE           ?PR?ICM20602_GET_GYRO?SEEKFREE_ICM20602
   *DEL*:           000050H   BYTE   INSEG    CODE           ?PR?IMU660RA_GET_GYRO?SEEKFREE_IMU660RA
   *DEL*:           000022H   BYTE   INSEG    CODE           ?PR?IMU660RA_WRITE_REGISTERS?SEEKFREE_IMU660RA
   *DEL*:           0000A8H   BYTE   INSEG    CODE           ?PR?IMU660RA_GYRO_TRANSITION?SEEKFREE_IMU660RA
   *DEL*:           00001AH   BYTE   INSEG    CODE           ?PR?IMU660RA_WRITE_REGISTER?SEEKFREE_IMU660RA
   *DEL*:           00004BH   BYTE   INSEG    CODE           ?PR?IMU660RA_SELF_CHECK?SEEKFREE_IMU660RA
   *DEL*:           00003EH   BYTE   INSEG    CODE           ?PR?IMU660RA_SIMSPI_W_REG_BYTES?SEEKFREE_IMU660RA
   *DEL*:           00001BH   BYTE   INSEG    CODE           ?PR?IMU660RA_SIMSPI_W_REG_BYTE?SEEKFREE_IMU660RA
   *DEL*:           0000AEH   BYTE   INSEG    CODE           ?PR?IMU660RA_INIT?SEEKFREE_IMU660RA
   *DEL*:           000050H   BYTE   INSEG    CODE           ?PR?IMU660RA_GET_ACC?SEEKFREE_IMU660RA
   *DEL*:           00007CH   BYTE   INSEG    CODE           ?PR?IMU660RA_ACC_TRANSITION?SEEKFREE_IMU660RA
   *DEL*:           000026H   BYTE   INSEG    CODE           ?PR?IMU660RA_READ_REGISTERS?SEEKFREE_IMU660RA
   *DEL*:           00008DH   BYTE   INSEG    CODE           ?PR?IMU963RA_ACC_TRANSITION?SEEKFREE_IMU963RA
   *DEL*:           000050H   BYTE   INSEG    CODE           ?PR?IMU963RA_GET_GYRO?SEEKFREE_IMU963RA
   *DEL*:           000051H   BYTE   INSEG    CODE           ?PR?IMU963RA_MAG_TRANSITION?SEEKFREE_IMU963RA
   *DEL*:           0000D2H   BYTE   INSEG    CODE           ?PR?IMU963RA_GYRO_TRANSITION?SEEKFREE_IMU963RA
   *DEL*:           00003AH   BYTE   INSEG    CODE           ?PR?IMU963RA_CONNECT_MAG?SEEKFREE_IMU963RA
   *DEL*:           000026H   BYTE   INSEG    CODE           ?PR?IMU963RA_READ_ACC_GYRO_REGISTERS?SEEKFREE_IMU963RA
   *DEL*:           00007FH   BYTE   INSEG    CODE           ?PR?IMU963RA_WRITE_MAG_REGISTER?SEEKFREE_IMU963RA
   *DEL*:           00004BH   BYTE   INSEG    CODE           ?PR?IMU963RA_SIMSPI_R_REG_BYTES?SEEKFREE_IMU963RA
   *DEL*:           000051H   BYTE   INSEG    CODE           ?PR?IMU963RA_MAG_SELF_CHECK?SEEKFREE_IMU963RA
   *DEL*:           00011DH   BYTE   INSEG    CODE           ?PR?IMU963RA_INIT?SEEKFREE_IMU963RA
   *DEL*:           00004EH   BYTE   INSEG    CODE           ?PR?IMU963RA_ACC_GYRO_SELF_CHECK?SEEKFREE_IMU963RA
   *DEL*:           000050H   BYTE   INSEG    CODE           ?PR?IMU963RA_GET_ACC?SEEKFREE_IMU963RA
   *DEL*:           00006BH   BYTE   INSEG    CODE           ?PR?IMU963RA_GET_MAG?SEEKFREE_IMU963RA
   *DEL*:           0000A9H   BYTE   INSEG    CODE           ?PR?IPS114_SHOWUINT8_SIMSPI?SEEKFREE_IPS114_SPI
   *DEL*:           0000A5H   BYTE   INSEG    CODE           ?PR?IPS114_SHOWUINT8?SEEKFREE_IPS114_SPI
   *DEL*:           0000EBH   BYTE   INSEG    CODE           ?PR?IPS114_SHOWINT8_SIMSPI?SEEKFREE_IPS114_SPI
   *DEL*:           0000E7H   BYTE   INSEG    CODE           ?PR?IPS114_SHOWINT8?SEEKFREE_IPS114_SPI
   *DEL*:           000145H   BYTE   INSEG    CODE           ?PR?IPS114_SHOWFLOAT_SIMSPI?SEEKFREE_IPS114_SPI
   *DEL*:           000023H   BYTE   INSEG    CODE           ?PR?IPS114_DRAWPOINT_SIMSPI?SEEKFREE_IPS114_SPI
L251 LINKER/LOCATER V4.66.93.0                                                        03/12/2024  22:09:15  PAGE 12


   *DEL*:           000023H   BYTE   INSEG    CODE           ?PR?IPS114_DRAWPOINT?SEEKFREE_IPS114_SPI
   *DEL*:           0000BFH   BYTE   INSEG    CODE           ?PR?IPS114_SHOWCHAR_SIMSPI?SEEKFREE_IPS114_SPI
   *DEL*:           0000CDH   BYTE   INSEG    CODE           ?PR?IPS114_SHOWUINT16_SIMSPI?SEEKFREE_IPS114_SPI
   *DEL*:           0000CDH   BYTE   INSEG    CODE           ?PR?IPS114_SHOWUINT16?SEEKFREE_IPS114_SPI
   *DEL*:           0000CEH   BYTE   INSEG    CODE           ?PR?IPS114_SHOWINT32_SIMSPI?SEEKFREE_IPS114_SPI
   *DEL*:           000119H   BYTE   INSEG    CODE           ?PR?IPS114_SHOWINT16_SIMSPI?SEEKFREE_IPS114_SPI
   *DEL*:           0000CEH   BYTE   INSEG    CODE           ?PR?IPS114_SHOWINT32?SEEKFREE_IPS114_SPI
   *DEL*:           000115H   BYTE   INSEG    CODE           ?PR?IPS114_SHOWINT16?SEEKFREE_IPS114_SPI
   *DEL*:           00005FH   BYTE   INSEG    CODE           ?PR?IPS114_CLEAR_SIMSPI?SEEKFREE_IPS114_SPI
   *DEL*:           00005DH   BYTE   INSEG    CODE           ?PR?IPS114_SHOWSTR_SIMSPI?SEEKFREE_IPS114_SPI
   *DEL*:           00004CH   BYTE   INSEG    CODE           ?PR?IPS114_WRITEDATA_SIMSPI?SEEKFREE_IPS114_SPI
   *DEL*:           000054H   BYTE   INSEG    CODE           ?PR?IPS114_SET_REGION_SIMSPI?SEEKFREE_IPS114_SPI
   *DEL*:           000154H   BYTE   INSEG    CODE           ?PR?IPS114_INIT_SIMSPI?SEEKFREE_IPS114_SPI
   *DEL*:           00006CH   BYTE   INSEG    CODE           ?PR?MPU6050_SIMIIC_READ_REGS?SEEKFREE_MPU6050
   *DEL*:           00003BH   BYTE   INSEG    CODE           ?PR?MPU6050_SIMIIC_READ_REG?SEEKFREE_MPU6050
   *DEL*:           00002AH   BYTE   INSEG    CODE           ?PR?MPU6050_SIMIIC_WRITE_REG?SEEKFREE_MPU6050
   *DEL*:           000060H   BYTE   INSEG    CODE           ?PR?MPU6050_INIT?SEEKFREE_MPU6050
   *DEL*:           000033H   BYTE   INSEG    CODE           ?PR?MPU6050_SELF1_CHECK?SEEKFREE_MPU6050
   *DEL*:           00006AH   BYTE   INSEG    CODE           ?PR?MPU6050_READ_CH?SEEKFREE_MPU6050
   *DEL*:           000049H   BYTE   INSEG    CODE           ?PR?MPU6050_SEND_CH?SEEKFREE_MPU6050
   *DEL*:           000052H   BYTE   INSEG    CODE           ?PR?MPU6050_GET_GYRO?SEEKFREE_MPU6050
   *DEL*:           000021H   BYTE   INSEG    CODE           ?PR?MPU6050_SCCB_WAITACK?SEEKFREE_MPU6050
   *DEL*:           000052H   BYTE   INSEG    CODE           ?PR?MPU6050_GET_ACCDATA?SEEKFREE_MPU6050
   *DEL*:           000047H   BYTE   INSEG    CODE           ?PR?OLED_PUTPIXEL?SEEKFREE_OLED
   *DEL*:           00006FH   BYTE   INSEG    CODE           ?PR?OLED_HEXASCII_SPI?SEEKFREE_OLED
   *DEL*:           00044DH   BYTE   INSEG    CODE           ?PR?OLED_DIS_BMP_SPI?SEEKFREE_OLED
   *DEL*:           000145H   BYTE   INSEG    CODE           ?PR?OLED_PRINTF_FLOAT?SEEKFREE_OLED
   *DEL*:           000121H   BYTE   INSEG    CODE           ?PR?OLED_P8X16STR_SPI?SEEKFREE_OLED
   *DEL*:           000041H   BYTE   INSEG    CODE           ?PR?OLED_CLRPIXEL_SPI?SEEKFREE_OLED
   *DEL*:           0000C0H   BYTE   INSEG    CODE           ?PR?OLED_PRINT_CHINESE_SPI?SEEKFREE_OLED
   *DEL*:           00005DH   BYTE   INSEG    CODE           ?PR?OLED_FILL?SEEKFREE_OLED
   *DEL*:           0000CEH   BYTE   INSEG    CODE           ?PR?OLED_PRINTF_INT32?SEEKFREE_OLED
   *DEL*:           000027H   BYTE   INSEG    CODE           ?PR?OLED_UINT16?SEEKFREE_OLED
   *DEL*:           000048H   BYTE   INSEG    CODE           ?PR?OLED_PUTPIXEL_SPI?SEEKFREE_OLED
   *DEL*:           0000D1H   BYTE   INSEG    CODE           ?PR?OLED_P6X8STR?SEEKFREE_OLED
   *DEL*:           000073H   BYTE   INSEG    CODE           ?PR?OLED_INT16?SEEKFREE_OLED
   *DEL*:           0000A8H   BYTE   INSEG    CODE           ?PR?OLED_INIT?SEEKFREE_OLED
   *DEL*:           000145H   BYTE   INSEG    CODE           ?PR?OLED_PRINTF_FLOAT_SPI?SEEKFREE_OLED
   *DEL*:           00006FH   BYTE   INSEG    CODE           ?PR?OLED_HEXASCII?SEEKFREE_OLED
   *DEL*:           00005DH   BYTE   INSEG    CODE           ?PR?OLED_FILL_SPI?SEEKFREE_OLED
   *DEL*:           0000CEH   BYTE   INSEG    CODE           ?PR?OLED_PRINTF_INT32_SPI?SEEKFREE_OLED
   *DEL*:           000027H   BYTE   INSEG    CODE           ?PR?OLED_UINT16_SPI?SEEKFREE_OLED
   *DEL*:           0000D1H   BYTE   INSEG    CODE           ?PR?OLED_P6X8STR_SPI?SEEKFREE_OLED
   *DEL*:           000073H   BYTE   INSEG    CODE           ?PR?OLED_INT16_SPI?SEEKFREE_OLED
   *DEL*:           00046AH   BYTE   INSEG    CODE           ?PR?OLED_DIS_BMP?SEEKFREE_OLED
   *DEL*:           0000C5H   BYTE   INSEG    CODE           ?PR?OLED_INIT_SPI?SEEKFREE_OLED
   *DEL*:           000121H   BYTE   INSEG    CODE           ?PR?OLED_P8X16STR?SEEKFREE_OLED
   *DEL*:           000040H   BYTE   INSEG    CODE           ?PR?OLED_CLRPIXEL?SEEKFREE_OLED
   *DEL*:           0000C0H   BYTE   INSEG    CODE           ?PR?OLED_PRINT_CHINESE?SEEKFREE_OLED
   *DEL*:           00009AH   BYTE   INSEG    CODE           ?PR?CRC_CHECK?SEEKFREE_VIRSCO
   *DEL*:           0000DCH   BYTE   INSEG    CODE           ?PR?DATA_CONVERSION?SEEKFREE_VIRSCO
   *DEL*:           00002EH   BYTE   INSEG    CODE           ?PR?WIRELESS_UART_READ_BUFF?SEEKFREE_WIRELESS
   *DEL*:           000075H   BYTE   INSEG    CODE           ?PR?WIRELESS_UART_SEND_BUFF?SEEKFREE_WIRELESS
   *DEL*:           000044H   BYTE   INSEG    CODE           ?PR?WIRELESS_UART_INIT?SEEKFREE_WIRELESS
   *DEL*:           00002EH   BYTE   INSEG    CODE           ?PR?WIRELESS_CH573_READ_BUFF?SEEKFREE_WIRELESS_CH573
   *DEL*:           00007DH   BYTE   INSEG    CODE           ?PR?WIRELESS_CH573_SEND_BUFF?SEEKFREE_WIRELESS_CH573
   *DEL*:           000044H   BYTE   INSEG    CODE           ?PR?WIRELESS_CH573_INIT?SEEKFREE_WIRELESS_CH573
   *DEL*:           000138H   BYTE   INSEG    CODE           ?PR?PID_POSITION?PID
   *DEL*:           0000B3H   BYTE   INSEG    CODE           ?PR?PID_POS_INIT?PID
   *DEL*:           000015H   BYTE   INSEG    CODE           ?PR?BEEP_BEE?BEEP
   *DEL*:           000117H   BYTE   INSEG    CODE           ?PR?PID_CTRL?CONTROL
   *DEL*:           000138H   BYTE   INSEG    CODE           ?PR?SEEKFREE_ASSISTANT_OSCILLOSCOPE_SEND?SEEKFREE_ASSISTAN
                                                             -T
   *DEL*:           00001AH   BYTE   INSEG    CODE           ?PR?SEEKFREE_ASSISTANT_INIT?SEEKFREE_ASSISTANT
   *DEL*:           00003FH   BYTE   INSEG    CODE           ?PR?SEEKFREE_ASSISTANT_SUM?SEEKFREE_ASSISTANT
L251 LINKER/LOCATER V4.66.93.0                                                        03/12/2024  22:09:15  PAGE 13


   *DEL*:           000175H   BYTE   INSEG    CODE           ?PR?SEEKFREE_ASSISTANT_DATA_ANALYSIS?SEEKFREE_ASSISTANT
   *DEL*:           000028H   BYTE   UNIT     EDATA          ?ED?PRINTF
   *DEL*:           00001AH   BYTE   INSEG    CODE           ?PR?MEMSET?_?MEMSET



OVERLAY MAP OF MODULE:   .\Out_File\SEEKFREE (board)


FUNCTION/MODULE                                BIT_GROUP   DATA_GROUP 
--> CALLED FUNCTION/MODULE                    START  STOP  START  STOP
======================================================================
UART1_Isr/isr                                 ----- -----  ----- -----

*** NEW ROOT ********************************

UART2_Isr/isr                                 ----- -----  ----- -----

*** NEW ROOT ********************************

UART3_Isr/isr                                 ----- -----  ----- -----

*** NEW ROOT ********************************

UART4_Isr/isr                                 ----- -----  ----- -----
  +--> wireless_uart_callback/SEEKFREE_WIRELESS
  +--> bluetooth_ch9141_uart_callback/SEEKFREE_BLUETOOTH_CH9141
  +--> wireless_ch573_callback/SEEKFREE_WIRELESS_CH573

wireless_uart_callback/SEEKFREE_WIRELESS      ----- -----  ----- -----
  +--> fifo_write_buffer/zf_fifo

fifo_write_buffer/zf_fifo                     ----- -----  ----- -----
  +--> memcpy?_/memcpy
  +--> fifo_head_offset/zf_fifo

memcpy?_/memcpy                               ----- -----  ----- -----

fifo_head_offset/zf_fifo                      ----- -----  ----- -----

bluetooth_ch9141_uart_callback/SEEKFREE_+     ----- -----  ----- -----
... BLUETOOTH_CH9141
  +--> fifo_write_buffer/zf_fifo

wireless_ch573_callback/SEEKFREE_WIRELES+     ----- -----  ----- -----
... S_CH573
  +--> fifo_write_buffer/zf_fifo

*** NEW ROOT ********************************

INT0_Isr/isr                                  ----- -----  ----- -----

*** NEW ROOT ********************************

INT1_Isr/isr                                  ----- -----  ----- -----

*** NEW ROOT ********************************

INT2_Isr/isr                                  ----- -----  ----- -----

*** NEW ROOT ********************************

INT3_Isr/isr                                  ----- -----  ----- -----

*** NEW ROOT ********************************
L251 LINKER/LOCATER V4.66.93.0                                                        03/12/2024  22:09:15  PAGE 14



INT4_Isr/isr                                  ----- -----  ----- -----

*** NEW ROOT ********************************

TM0_Isr/isr                                   ----- -----  ----- -----

*** NEW ROOT ********************************

TM1_Isr/isr                                   ----- -----  ----- -----

*** NEW ROOT ********************************

TM2_Isr/isr                                   ----- -----  ----- -----
  +--> InductorRead/inductance
  +--> SimpleNorRead/inductance
  +--> Encoder_speed/Encoder
  +--> Pid_Ctrl2/Control

InductorRead/inductance                       ----- -----  ----- -----
  +--> adc_once/zf_adc

adc_once/zf_adc                               ----- -----  ----- -----

SimpleNorRead/inductance                      ----- -----  ----- -----

Encoder_speed/Encoder                         ----- -----  ----- -----
  +--> ctimer_count_read/zf_tim
  +--> ctimer_count_clean/zf_tim

ctimer_count_read/zf_tim                      ----- -----  ----- -----

ctimer_count_clean/zf_tim                     ----- -----  ----- -----

Pid_Ctrl2/Control                             ----- -----  ----- -----
  +--> My_center_mag/inductance
  +--> dircontrol/Control
  +--> PID_increase/Pid
  +--> Motor_Ctrl/Motor
  +--> Motor_set_PWM/Control

My_center_mag/inductance                      ----- -----  ----- -----

dircontrol/Control                            ----- -----  ----- -----

PID_increase/Pid                              ----- -----  ----- -----

Motor_Ctrl/Motor                              ----- -----  ----- -----
  +--> pwm_duty/zf_pwm

pwm_duty/zf_pwm                               ----- -----  ----- -----

Motor_set_PWM/Control                         ----- -----  ----- -----

*** NEW ROOT ********************************

TM3_Isr/isr                                   ----- -----  ----- -----

*** NEW ROOT ********************************

TM4_Isr/isr                                   ----- -----  ----- -----

*** NEW ROOT ********************************

?C_C51STARTUP                                 ----- -----  ----- -----
L251 LINKER/LOCATER V4.66.93.0                                                        03/12/2024  22:09:15  PAGE 15



*** NEW ROOT ********************************

?C_C51STARTUP?3                               ----- -----  ----- -----
  +--> main/main

main/main                                     ----- -----  ----- -----
  +--> All_init/All_init
  +--> Key_Scan/Key
  +--> Key_Screen/Key
  +--> ips114_showfloat/SEEKFREE_IPS114_SPI

All_init/All_init                             ----- -----  ----- -----
  +--> board_init/board
  +--> Screen_init/Screen
  +--> PID_ALL_Init/Pid
  +--> Motor_init/Motor
  +--> Beep_init/Beep
  +--> Key_init/Key
  +--> Encoder_init/Encoder
  +--> Adcs_init/Adc
  +--> pit_timer_ms/zf_tim

board_init/board                              ----- -----  ----- -----
  +--> set_clk/board
  +--> delay_init/zf_delay
  +--> uart_init/zf_uart
  +--> EnableGlobalIRQ/board

set_clk/board                                 ----- -----  ----- -----

delay_init/zf_delay                           ----- -----  ----- -----
  +--> ?C?SLDIV/?C?SLDIV

?C?SLDIV/?C?SLDIV                             ----- -----  ----- -----
  +--> ?C?ULIDIV/?C?ULDIV

?C?ULIDIV/?C?ULDIV                            ----- -----  ----- -----

uart_init/zf_uart                             ----- -----  ----- -----
  +--> ?C?ULIDIV/?C?ULDIV

EnableGlobalIRQ/board                         ----- -----  ----- -----

Screen_init/Screen                            ----- -----  ----- -----
  +--> ips114_init/SEEKFREE_IPS114_SPI
  +--> ips114_clear/SEEKFREE_IPS114_SPI

ips114_init/SEEKFREE_IPS114_SPI               ----- -----  ----- -----
  +--> spi_init/zf_spi
  +--> delay_ms/zf_delay
  +--> ips114_writeIndex/SEEKFREE_IPS114_SPI
  +--> ips114_writeData/SEEKFREE_IPS114_SPI
  +--> ips114_clear/SEEKFREE_IPS114_SPI

spi_init/zf_spi                               ----- -----  ----- -----
  +--> gpio_mode/zf_gpio

gpio_mode/zf_gpio                             ----- -----  ----- -----

delay_ms/zf_delay                             ----- -----  ----- -----

ips114_writeIndex/SEEKFREE_IPS114_SPI         ----- -----  ----- -----
  +--> spi_mosi/zf_spi

L251 LINKER/LOCATER V4.66.93.0                                                        03/12/2024  22:09:15  PAGE 16


spi_mosi/zf_spi                               ----- -----  ----- -----

ips114_writeData/SEEKFREE_IPS114_SPI          ----- -----  ----- -----
  +--> spi_mosi/zf_spi

ips114_clear/SEEKFREE_IPS114_SPI              ----- -----  ----- -----
  +--> ips114_set_region/SEEKFREE_IPS114_SPI
  +--> ips114_writedata_16bit/SEEKFREE_IPS114_SPI

ips114_set_region/SEEKFREE_IPS114_SPI         ----- -----  ----- -----
  +--> ips114_writeIndex/SEEKFREE_IPS114_SPI
  +--> ips114_writedata_16bit/SEEKFREE_IPS114_SPI

ips114_writedata_16bit/SEEKFREE_IPS114_S+     ----- -----  ----- -----
... PI
  +--> spi_mosi/zf_spi

PID_ALL_Init/Pid                              ----- -----  ----- -----
  +--> PID_Inc_Init/Pid

PID_Inc_Init/Pid                              ----- -----  ----- -----

Motor_init/Motor                              ----- -----  ----- -----
  +--> pwm_init/zf_pwm
  +--> gpio_mode/zf_gpio

pwm_init/zf_pwm                               ----- -----  ----- -----
  +--> pwm_set_gpio/zf_pwm
  +--> ?C?ULIDIV/?C?ULDIV

pwm_set_gpio/zf_pwm                           ----- -----  ----- -----
  +--> gpio_mode/zf_gpio

Beep_init/Beep                                ----- -----  ----- -----
  +--> gpio_mode/zf_gpio
  +--> gpio_pull_set/zf_gpio

gpio_pull_set/zf_gpio                         ----- -----  ----- -----

Key_init/Key                                  ----- -----  ----- -----
  +--> gpio_mode/zf_gpio
  +--> gpio_pull_set/zf_gpio

Encoder_init/Encoder                          ----- -----  ----- -----
  +--> ctimer_count_init/zf_tim

ctimer_count_init/zf_tim                      ----- -----  ----- -----

Adcs_init/Adc                                 ----- -----  ----- -----
  +--> adc_init/zf_adc

adc_init/zf_adc                               ----- -----  ----- -----

pit_timer_ms/zf_tim                           ----- -----  ----- -----
  +--> ?C?SLDIV/?C?SLDIV

Key_Scan/Key                                  ----- -----  ----- -----
  +--> delay_ms/zf_delay

Key_Screen/Key                                ----- -----  ----- -----
  +--> Screen_Choose_Page/Screen
  +--> Screen_Choose_Pid/Screen
  +--> Screen_Pid_MAXIncrease/Screen
  +--> Screen_Pid_MAXDecrease/Screen
  +--> Screen_Pid_MINDecrease/Screen
L251 LINKER/LOCATER V4.66.93.0                                                        03/12/2024  22:09:15  PAGE 17


  +--> Screen_Pid_MINIncrease/Screen

Screen_Choose_Page/Screen                     ----- -----  ----- -----
  +--> ips114_clear/SEEKFREE_IPS114_SPI
  +--> ips114_showstr/SEEKFREE_IPS114_SPI
  +--> ips114_showfloat/SEEKFREE_IPS114_SPI

ips114_showstr/SEEKFREE_IPS114_SPI            ----- -----  ----- -----
  +--> ips114_showchar/SEEKFREE_IPS114_SPI

ips114_showchar/SEEKFREE_IPS114_SPI           ----- -----  ----- -----
  +--> ips114_set_region/SEEKFREE_IPS114_SPI
  +--> ips114_writedata_16bit/SEEKFREE_IPS114_SPI

ips114_showfloat/SEEKFREE_IPS114_SPI          ----- -----  ----- -----
  +--> zf_sprintf/SEEKFREE_PRINTF
  +--> ips114_showstr/SEEKFREE_IPS114_SPI

zf_sprintf/SEEKFREE_PRINTF                    ----- -----  ----- -----
  +--> number_conversion_ascii/SEEKFREE_PRINTF
  +--> printf_reverse_order/SEEKFREE_PRINTF
  +--> memcpy?_/memcpy

number_conversion_ascii/SEEKFREE_PRINTF       ----- -----  ----- -----
  +--> ?C?SLDIV/?C?SLDIV
  +--> ?C?ULIDIV/?C?ULDIV

printf_reverse_order/SEEKFREE_PRINTF          ----- -----  ----- -----

Screen_Choose_Pid/Screen                      ----- -----  ----- -----
  +--> Screen_Choose_Page/Screen
  +--> ips114_showstr/SEEKFREE_IPS114_SPI

Screen_Pid_MAXIncrease/Screen                 ----- -----  ----- -----
  +--> ips114_showfloat/SEEKFREE_IPS114_SPI

Screen_Pid_MAXDecrease/Screen                 ----- -----  ----- -----
  +--> ips114_showfloat/SEEKFREE_IPS114_SPI

Screen_Pid_MINDecrease/Screen                 ----- -----  ----- -----
  +--> ips114_showfloat/SEEKFREE_IPS114_SPI

Screen_Pid_MINIncrease/Screen                 ----- -----  ----- -----
  +--> ips114_showfloat/SEEKFREE_IPS114_SPI

*** NEW ROOT ********************************

?C_C51STARTUP?2                               ----- -----  ----- -----



PUBLIC SYMBOLS OF MODULE:  .\Out_File\SEEKFREE (board)


      VALUE       CLASS    TYPE      PUBLIC SYMBOL NAME
      =================================================
      00FF3962H   CODE     ---       ?C?BMOVENP
      00FF3960H   CODE     ---       ?C?BMOVENP8
      00FF3197H   CODE     NEAR LAB  ?C?CASTF
      000000FFH   NUMBER   ---       ?C?CODESEG
      00FF3164H   CODE     NEAR LAB  ?C?FCASTC
      00FF315FH   CODE     NEAR LAB  ?C?FCASTI
      00FF315AH   CODE     NEAR LAB  ?C?FCASTL
      00FF2F3BH   CODE     ---       ?C?FPADD
      00FF3116H   CODE     ---       ?C?FPCMP
L251 LINKER/LOCATER V4.66.93.0                                                        03/12/2024  22:09:15  PAGE 18


      00FF3114H   CODE     ---       ?C?FPCMP3
      00FF372BH   CODE     ---       ?C?FPCONVERT
      00FF3093H   CODE     ---       ?C?FPDIV
      00FF3290H   CODE     ---       ?C?FPGETOPN2
      00FF2FF3H   CODE     ---       ?C?FPMUL
      00FF32CDH   CODE     ---       ?C?FPNANRESULT
      00FF32D5H   CODE     ---       ?C?FPOVERFLOW
      00FF32A9H   CODE     ---       ?C?FPRESULT
      00FF32BFH   CODE     ---       ?C?FPRESULT2
      00FF37E3H   CODE     ---       ?C?FPROUND
      00FF2F38H   CODE     ---       ?C?FPSUB
      00FF32D2H   CODE     ---       ?C?FPUNDERFLOW
      00FF3856H   CODE     ---       ?C?FTNPWR
      00FF8A26H   CODE     ---       ?C?INITEDATA
      00FF91A3H   HCONST   WORD      ?C?INITEDATA_END
      00FF38D0H   CODE     ---       ?C?LIMUL
      00FF38BFH   CODE     ---       ?C?LMUL
      00FF330EH   CODE     ---       ?C?PRNFMT
      00FF388DH   CODE     ---       ?C?SIDIV
      00FF392CH   CODE     NEAR LAB  ?C?SLDIV
      00FF0000H   CODE     ---       ?C?STARTUP
      00FF38DBH   CODE     NEAR LAB  ?C?ULDIV
      00FF38D9H   CODE     NEAR LAB  ?C?ULIDIV
      00000001H   NUMBER   ---       ?C?XDATASEG
      00FF0000H   CODE     ---       ?C_STARTUP
      00000939H   EDATA    BYTE      ?data_conversion?BYTE
      000008D1H   EDATA    BYTE      ?dl1b_iic_transfer_8bit_array?BYTE
      000008C1H   EDATA    BYTE      ?fifo_init?BYTE
      000007E1H   EDATA    BYTE      ?fifo_read_buffer?BYTE
      0000096EH   EDATA    BYTE      ?fifo_read_element?BYTE
      000007F9H   EDATA    BYTE      ?fifo_read_tail_buffer?BYTE
      00000879H   EDATA    BYTE      ?fifo_write_buffer?BYTE
      00000A72H   EDATA    BYTE      ?iap_read_bytes?BYTE
      00000A7CH   EDATA    BYTE      ?iap_write_bytes?BYTE
      00000587H   EDATA    BYTE      ?ips114_showfloat?BYTE
      00000557H   EDATA    BYTE      ?ips114_showfloat_simspi?BYTE
      00000527H   EDATA    BYTE      ?lcd_showfloat?BYTE
      000004F7H   EDATA    BYTE      ?lcd_showfloat_simspi?BYTE
      00000865H   EDATA    BYTE      ?number_conversion_ascii?BYTE
      000005B7H   EDATA    BYTE      ?oled_printf_float?BYTE
      000005E7H   EDATA    BYTE      ?oled_printf_float_spi?BYTE
      000008F1H   EDATA    BYTE      ?PID_Inc_Init?BYTE
      000008E1H   EDATA    BYTE      ?PID_Pos_Init?BYTE
*DEL*:00000028H   EDATA    ---       ?printf?BYTE
      00000851H   EDATA    BYTE      ?pwm_freq?BYTE
      0000083DH   EDATA    BYTE      ?pwm_init?BYTE
      00000947H   EDATA    BYTE      ?spi_init?BYTE
      0000090FH   EDATA    BYTE      ?uart_init?BYTE
      00000A86H   EDATA    BYTE      ?uart_putbuff?BYTE
      000003B8H   EDATA    BYTE      ?zf_sprintf?BYTE
      00000123H   EDATA    INT       ad_diff
      000001B7H   EDATA    INT       ad_sum
*SFR* 000000BCH   DATA     BYTE      ADC_CONTR
      00FF7630H   CODE     ---       adc_init
      00FF8386H   CODE     ---       adc_once
*SFR* 000000BDH   DATA     BYTE      ADC_RES
*SFR* 000000BEH   DATA     BYTE      ADC_RESL
*SFR* 000000DEH   DATA     BYTE      ADCCFG
      00FF8994H   CODE     ---       Adcs_init
      00FF8CCAH   CODE     ---       All_init
*SFR* 000000EFH   DATA     BYTE      AUXINTIF
*SFR* 0000008EH   DATA     BYTE      AUXR
*SFR* 00000097H   DATA     BYTE      AUXR2
      00000798H   EDATA    INT       B11_errLR
      0000079AH   EDATA    INT       B11_errRL
L251 LINKER/LOCATER V4.66.93.0                                                        03/12/2024  22:09:15  PAGE 19


      00000796H   EDATA    INT       B11_sum
*DEL*:00000000H   CODE     ---       Beep_bee
      00FF8E90H   CODE     ---       Beep_init
*DEL*:00000000H   CODE     ---       bluetooth_ch9141_init
*DEL*:00000000H   CODE     ---       bluetooth_ch9141_read_buff
*DEL*:00000000H   CODE     ---       bluetooth_ch9141_send_buff
      00FF8E28H   CODE     ---       bluetooth_ch9141_uart_callback
      00FF798BH   CODE     ---       board_init
      00000D03H   EDATA    ---       busy
*SFR* 000000F1H   DATA     BYTE      CANICR
*SFR* 000000EAH   DATA     BYTE      CKCON
*SFR* 000000E6H   DATA     BYTE      CMPCR1
*SFR* 000000E7H   DATA     BYTE      CMPCR2
*DEL*:00000000H   CODE     ---       CRC_CHECK
      00FF8168H   CODE     ---       ctimer_count_clean
      00FF8486H   CODE     ---       ctimer_count_init
      00FF76E5H   CODE     ---       ctimer_count_read
*DEL*:00000000H   CODE     ---       data_conversion
      00FF8953H   CODE     ---       delay_init
      00FF8AC4H   CODE     ---       delay_ms
*DEL*:00000000H   CODE     ---       delay_us
      00000125H   EDATA    INT       deviation
      00000778H   EDATA    FLOAT     dir_d
      0000077EH   EDATA    FLOAT     dir_i
      00000794H   EDATA    INT       Dir_out
      00000784H   EDATA    FLOAT     dir_p
      00000790H   EDATA    INT       Dir_real
      00FF7E2BH   CODE     ---       dircontrol
*DEL*:00000000H   CODE     ---       DisableGlobalIRQ
      00000D82H   EDATA    WORD      dl1a_distance_mm
      00000D84H   EDATA    BYTE      dl1a_finsh_flag
*DEL*:00000000H   CODE     ---       dl1a_get_distance
*DEL*:00000000H   CODE     ---       dl1a_init
      00FF00A6H   CODE     ---       dl1b_default_configuration
      00000D55H   EDATA    WORD      dl1b_distance_mm
      00000D57H   EDATA    BYTE      dl1b_finsh_flag
*DEL*:00000000H   CODE     ---       dl1b_get_distance
*DEL*:00000000H   CODE     ---       dl1b_iic_transfer_8bit_array
*DEL*:00000000H   CODE     ---       dl1b_init
      00000D58H   EDATA    BYTE      dl1b_init_flag
      0000078AH   EDATA    INT       dutyL
      0000078EH   EDATA    INT       dutyR
*SFR* 000000A8H.7 DATA     BIT       EA
*SFR* 000000BAH.7 DATA     BIT       EAXFR
*DEL*:00000000H   CODE     ---       eeprom_trig
      00000127H   EDATA    ---       ELC
      000000FBH   EDATA    INT       ELC_Center
      000000FDH   EDATA    INT       ELC_Center_B00
      000000FFH   EDATA    INT       ELC_Center_F00
      00000102H   EDATA    INT       ELC_Center_F11
      000001B6H   EDATA    BYTE      ELC_Center_Flag
      000001B0H   EDATA    INT       ELC_CenterBefore
      00000121H   EDATA    INT       ELC_CenterLast
      000000EBH   EDATA    INT       ELC_CenterRepair
      000001A8H   EDATA    INT       ELC_Err_B00
      000001AAH   EDATA    INT       ELC_Err_F00
      000001ACH   EDATA    INT       ELC_Err_F11
      000001B2H   EDATA    WORD      ELC_Sum_F00
      000001A5H   EDATA    WORD      ELC_Sum_F0110
      000001B4H   EDATA    WORD      ELC_Sum_F11
      000001AEH   EDATA    WORD      ELC_Sum_FALL
      000001A7H   EDATA    BYTE      ElcProtect_Flag
      00FF0006H   CODE     ---       EnableGlobalIRQ
      00FF0046H   CODE     ---       Encoder_init
      00FF8B5BH   CODE     ---       Encoder_speed
L251 LINKER/LOCATER V4.66.93.0                                                        03/12/2024  22:09:15  PAGE 20


*SFR* 000000A8H.4 DATA     BIT       ES
*SFR* 000000A8H.1 DATA     BIT       ET0
*SFR* 000000A8H.3 DATA     BIT       ET1
*SFR* 000000A8H.0 DATA     BIT       EX0
*SFR* 000000A8H.2 DATA     BIT       EX1
*DEL*:00000000H   CODE     ---       exit_init
*SFR* 000000D0H.5 DATA     BIT       F0
*DEL*:00000000H   CODE     ---       fifo_clear
*DEL*:00000000H   CODE     ---       fifo_init
*DEL*:00000000H   CODE     ---       fifo_read_buffer
*DEL*:00000000H   CODE     ---       fifo_read_element
*DEL*:00000000H   CODE     ---       fifo_read_tail_buffer
*DEL*:00000000H   CODE     ---       fifo_used
      00FF541EH   CODE     ---       fifo_write_buffer
*DEL*:00000000H   CODE     ---       fifo_write_element
      00FF3985H   CODE     ---       gpio_mode
      00FF7A22H   CODE     ---       gpio_pull_set
*SFR* 000000F6H   DATA     BYTE      IAP_ADDRE
*SFR* 000000C3H   DATA     BYTE      IAP_ADDRH
*SFR* 000000C4H   DATA     BYTE      IAP_ADDRL
*SFR* 000000C5H   DATA     BYTE      IAP_CMD
*SFR* 000000C7H   DATA     BYTE      IAP_CONTR
*SFR* 000000C2H   DATA     BYTE      IAP_DATA
*DEL*:00000000H   CODE     ---       iap_erase_page
*DEL*:00000000H   CODE     ---       iap_get_cmd_state
*DEL*:00000000H   CODE     ---       iap_idle
*DEL*:00000000H   CODE     ---       iap_init
*DEL*:00000000H   CODE     ---       iap_read_bytes
*DEL*:00000000H   CODE     ---       iap_set_tps
*SFR* 000000F5H   DATA     BYTE      IAP_TPS
*SFR* 000000C6H   DATA     BYTE      IAP_TRIG
*DEL*:00000000H   CODE     ---       iap_write_bytes
*DEL*:00000000H   CODE     ---       icm20602_acc_transition
      000009DAH   EDATA    INT       icm20602_acc_x
      000009DCH   EDATA    INT       icm20602_acc_y
      000009DEH   EDATA    INT       icm20602_acc_z
*DEL*:00000000H   CODE     ---       icm20602_get_acc
*DEL*:00000000H   CODE     ---       icm20602_get_gyro
*DEL*:00000000H   CODE     ---       icm20602_gyro_transition
      000009E0H   EDATA    INT       icm20602_gyro_x
      000009E2H   EDATA    INT       icm20602_gyro_y
      000009E4H   EDATA    INT       icm20602_gyro_z
*DEL*:00000000H   CODE     ---       icm20602_init
*SFR* 000000A8H   DATA     BYTE      IE
*SFR* 000000AFH   DATA     BYTE      IE2
*DEL*:00000000H   CODE     ---       imu660ra_acc_transition
      000009E6H   EDATA    INT       imu660ra_acc_x
      000009E8H   EDATA    INT       imu660ra_acc_y
      000009EAH   EDATA    INT       imu660ra_acc_z
      00FF012DH   CODE     ---       imu660ra_config_file
*DEL*:00000000H   CODE     ---       imu660ra_get_acc
*DEL*:00000000H   CODE     ---       imu660ra_get_gyro
*DEL*:00000000H   CODE     ---       imu660ra_gyro_transition
      000009ECH   EDATA    INT       imu660ra_gyro_x
      000009EEH   EDATA    INT       imu660ra_gyro_y
      000009F0H   EDATA    INT       imu660ra_gyro_z
*DEL*:00000000H   CODE     ---       imu660ra_init
*DEL*:00000000H   CODE     ---       imu963ra_acc_transition
      0000088BH   EDATA    INT       imu963ra_acc_x
      0000088DH   EDATA    INT       imu963ra_acc_y
      0000088FH   EDATA    INT       imu963ra_acc_z
*DEL*:00000000H   CODE     ---       imu963ra_get_acc
*DEL*:00000000H   CODE     ---       imu963ra_get_gyro
*DEL*:00000000H   CODE     ---       imu963ra_get_mag
*DEL*:00000000H   CODE     ---       imu963ra_gyro_transition
L251 LINKER/LOCATER V4.66.93.0                                                        03/12/2024  22:09:15  PAGE 21


      00000897H   EDATA    INT       imu963ra_gyro_x
      00000899H   EDATA    INT       imu963ra_gyro_y
      0000089BH   EDATA    INT       imu963ra_gyro_z
*DEL*:00000000H   CODE     ---       imu963ra_init
*DEL*:00000000H   CODE     ---       imu963ra_mag_transition
      00000891H   EDATA    INT       imu963ra_mag_x
      00000893H   EDATA    INT       imu963ra_mag_y
      00000895H   EDATA    INT       imu963ra_mag_z
      00FF5085H   CODE     ---       InductorRead
      00FF8FA7H   CODE     ---       INT0_Isr
      00FF000AH   CODE     ---       INT1_Isr
      00FF8FAFH   CODE     ---       INT2_Isr
      00FF8FB7H   CODE     ---       INT3_Isr
      00FF8FBFH   CODE     ---       INT4_Isr
*SFR* 0000008FH   DATA     BYTE      INTCLKO
*SFR* 000000B8H   DATA     BYTE      IP
*SFR* 000000B5H   DATA     BYTE      IP2
*SFR* 000000B6H   DATA     BYTE      IP2H
*SFR* 000000DFH   DATA     BYTE      IP3
*SFR* 000000EEH   DATA     BYTE      IP3H
*SFR* 000000B7H   DATA     BYTE      IPH
      00FF8109H   CODE     ---       ips114_clear
*DEL*:00000000H   CODE     ---       ips114_clear_simspi
*DEL*:00000000H   CODE     ---       ips114_drawpoint
*DEL*:00000000H   CODE     ---       ips114_drawpoint_simspi
      00FF66B1H   CODE     ---       ips114_init
*DEL*:00000000H   CODE     ---       ips114_init_simspi
      00FF84DAH   CODE     ---       ips114_set_region
*DEL*:00000000H   CODE     ---       ips114_set_region_simspi
      00FF7571H   CODE     ---       ips114_showchar
*DEL*:00000000H   CODE     ---       ips114_showchar_simspi
      00FF6D83H   CODE     ---       ips114_showfloat
*DEL*:00000000H   CODE     ---       ips114_showfloat_simspi
*DEL*:00000000H   CODE     ---       ips114_showint16
*DEL*:00000000H   CODE     ---       ips114_showint16_simspi
*DEL*:00000000H   CODE     ---       ips114_showint32
*DEL*:00000000H   CODE     ---       ips114_showint32_simspi
*DEL*:00000000H   CODE     ---       ips114_showint8
*DEL*:00000000H   CODE     ---       ips114_showint8_simspi
      00FF81C5H   CODE     ---       ips114_showstr
*DEL*:00000000H   CODE     ---       ips114_showstr_simspi
*DEL*:00000000H   CODE     ---       ips114_showuint16
*DEL*:00000000H   CODE     ---       ips114_showuint16_simspi
*DEL*:00000000H   CODE     ---       ips114_showuint8
*DEL*:00000000H   CODE     ---       ips114_showuint8_simspi
      00FF8F13H   CODE     ---       ips114_writeData
      00FF8BDCH   CODE     ---       ips114_writedata_16bit
*DEL*:00000000H   CODE     ---       ips114_writeData_simspi
      00FF8431H   CODE     ---       ips114_writeDatai_16bit_simspi
      00FF8EFEH   CODE     ---       ips114_writeIndex
      00FF870AH   CODE     ---       ips114_writeIndex_simspi
*SFR* 0000009DH   DATA     BYTE      IRCBAND
*SFR* 0000009FH   DATA     BYTE      IRTRIM
*SFR* 00000088H.0 DATA     BIT       IT0
*SFR* 00000088H.2 DATA     BIT       IT1
      00FF78F0H   CODE     ---       Key_init
      00FF6EC8H   CODE     ---       Key_Scan
      00FF74A6H   CODE     ---       Key_Screen
      0000079EH   EDATA    DWORD     KEYCENTER_Flag
      000007BAH   EDATA    DWORD     KEYDown_Flag
      000007B6H   EDATA    DWORD     KEYLeft_Flag
      000007AAH   EDATA    DWORD     KEYRight_Flag
      000007AEH   EDATA    DWORD     KEYS1_Flag
      000007B2H   EDATA    DWORD     KEYS2_Flag
      000007A2H   EDATA    DWORD     KEYUp_Flag
L251 LINKER/LOCATER V4.66.93.0                                                        03/12/2024  22:09:15  PAGE 22


      00000788H   EDATA    INT       last_chazhi
*DEL*:00000000H   CODE     ---       lcd_clear
*DEL*:00000000H   CODE     ---       lcd_clear_simspi
*DEL*:00000000H   CODE     ---       lcd_drawpoint
*DEL*:00000000H   CODE     ---       lcd_drawpoint_simspi
*DEL*:00000000H   CODE     ---       lcd_init
*DEL*:00000000H   CODE     ---       lcd_init_simspi
      00FF80A5H   CODE     ---       lcd_set_region
      00FF8041H   CODE     ---       lcd_set_region_simspi
*DEL*:00000000H   CODE     ---       lcd_showchar
*DEL*:00000000H   CODE     ---       lcd_showchar_simspi
*DEL*:00000000H   CODE     ---       lcd_showfloat
*DEL*:00000000H   CODE     ---       lcd_showfloat_simspi
*DEL*:00000000H   CODE     ---       lcd_showint16
*DEL*:00000000H   CODE     ---       lcd_showint16_simspi
*DEL*:00000000H   CODE     ---       lcd_showint32
*DEL*:00000000H   CODE     ---       lcd_showint32_simspi
*DEL*:00000000H   CODE     ---       lcd_showint8
*DEL*:00000000H   CODE     ---       lcd_showint8_simspi
*DEL*:00000000H   CODE     ---       lcd_showstr
*DEL*:00000000H   CODE     ---       lcd_showstr_simspi
*DEL*:00000000H   CODE     ---       lcd_showuint16
*DEL*:00000000H   CODE     ---       lcd_showuint16_simspi
*DEL*:00000000H   CODE     ---       lcd_showuint8
*DEL*:00000000H   CODE     ---       lcd_showuint8_simspi
      00FF8EE9H   CODE     ---       lcd_writeData
      00FF8B88H   CODE     ---       lcd_writedata_16bit
      00FF83DCH   CODE     ---       lcd_writeData_16bit_simspi
      00FF86BEH   CODE     ---       lcd_writeData_simspi
      00FF8ED4H   CODE     ---       lcd_writeIndex
      00FF8672H   CODE     ---       lcd_writeIndex_simspi
      00000120H   EDATA    BYTE      left_value
*SFR* 000000F9H   DATA     BYTE      LINICR
      000001B9H   EDATA    ---       LNor
      000000EDH   EDATA    ---       LNow
      00000112H   EDATA    ---       LNowMax
      00000104H   EDATA    ---       LNowMin
      00FF6AEEH   CODE     ---       main
      00FF8CA5H   CODE     ---       memcpy?_
*DEL*:00000000H   CODE     ---       memset?_
      00FF7799H   CODE     ---       Motor_Ctrl
      00FF89D4H   CODE     ---       Motor_init
      00FF8E0DH   CODE     ---       Motor_set_PWM
      00000A22H   EDATA    INT       mpu6050_acc_x
      00000A24H   EDATA    INT       mpu6050_acc_y
      00000A26H   EDATA    INT       mpu6050_acc_z
*DEL*:00000000H   CODE     ---       mpu6050_get_accdata
*DEL*:00000000H   CODE     ---       mpu6050_get_gyro
      00000A28H   EDATA    INT       mpu6050_gyro_x
      00000A2AH   EDATA    INT       mpu6050_gyro_y
      00000A2CH   EDATA    INT       mpu6050_gyro_z
*DEL*:00000000H   CODE     ---       mpu6050_init
*DEL*:00000000H   CODE     ---       mpu6050_simiic_read_reg
*DEL*:00000000H   CODE     ---       mpu6050_simiic_read_regs
      00FF6394H   CODE     ---       My_center_mag
      00FF7107H   CODE     ---       number_conversion_ascii
*DEL*:00000000H   CODE     ---       NVIC_SetPriority
      00FF2D0DH   CODE     ---       oled_6x8
      00FF212DH   CODE     ---       oled_8x16
*DEL*:00000000H   CODE     ---       oled_clrpixel
*DEL*:00000000H   CODE     ---       oled_clrpixel_spi
*DEL*:00000000H   CODE     ---       oled_dis_bmp
*DEL*:00000000H   CODE     ---       oled_dis_bmp_spi
*DEL*:00000000H   CODE     ---       oled_fill
*DEL*:00000000H   CODE     ---       oled_fill_spi
L251 LINKER/LOCATER V4.66.93.0                                                        03/12/2024  22:09:15  PAGE 23


*DEL*:00000000H   CODE     ---       oled_hexascii
*DEL*:00000000H   CODE     ---       oled_hexascii_spi
*DEL*:00000000H   CODE     ---       oled_init
*DEL*:00000000H   CODE     ---       oled_init_spi
*DEL*:00000000H   CODE     ---       oled_int16
*DEL*:00000000H   CODE     ---       oled_int16_spi
*DEL*:00000000H   CODE     ---       oled_p6x8str
*DEL*:00000000H   CODE     ---       oled_p6x8str_spi
*DEL*:00000000H   CODE     ---       oled_p8x16str
*DEL*:00000000H   CODE     ---       oled_p8x16str_spi
*DEL*:00000000H   CODE     ---       oled_print_chinese
*DEL*:00000000H   CODE     ---       oled_print_chinese_spi
*DEL*:00000000H   CODE     ---       oled_printf_float
*DEL*:00000000H   CODE     ---       oled_printf_float_spi
*DEL*:00000000H   CODE     ---       oled_printf_int32
*DEL*:00000000H   CODE     ---       oled_printf_int32_spi
*DEL*:00000000H   CODE     ---       oled_putpixel
*DEL*:00000000H   CODE     ---       oled_putpixel_spi
      00FF8AF9H   CODE     ---       oled_set_pos
      00FF8A8EH   CODE     ---       oled_set_pos_spi
*DEL*:00000000H   CODE     ---       oled_uint16
*DEL*:00000000H   CODE     ---       oled_uint16_spi
      00FF8756H   CODE     ---       oled_wrcmd
      00FF8F28H   CODE     ---       oled_wrcmd_spi
      00FF87A2H   CODE     ---       oled_wrdat
      00FF8F3DH   CODE     ---       oled_wrdat_spi
      0000078CH   EDATA    INT       out_dw
      0000077CH   EDATA    INT       out_L
      00000782H   EDATA    INT       out_R
      00000792H   EDATA    INT       output
*SFR* 00000080H   DATA     BYTE      P0
*SFR* 00000080H.1 DATA     BIT       P01
*SFR* 00000080H.7 DATA     BIT       P07
*SFR* 00000094H   DATA     BYTE      P0M0
*SFR* 00000093H   DATA     BYTE      P0M1
*SFR* 00000090H   DATA     BYTE      P1
*SFR* 00000092H   DATA     BYTE      P1M0
*SFR* 00000091H   DATA     BYTE      P1M1
*SFR* 000000A0H   DATA     BYTE      P2
*SFR* 000000A0H.0 DATA     BIT       P20
*SFR* 000000A0H.1 DATA     BIT       P21
*SFR* 000000A0H.2 DATA     BIT       P22
*SFR* 000000A0H.3 DATA     BIT       P23
*SFR* 000000A0H.4 DATA     BIT       P24
*SFR* 000000A0H.5 DATA     BIT       P25
*SFR* 000000A0H.7 DATA     BIT       P27
*SFR* 00000096H   DATA     BYTE      P2M0
*SFR* 00000095H   DATA     BYTE      P2M1
*SFR* 000000B0H   DATA     BYTE      P3
*SFR* 000000B0H.6 DATA     BIT       P36
*SFR* 000000B0H.7 DATA     BIT       P37
*SFR* 000000B2H   DATA     BYTE      P3M0
*SFR* 000000B1H   DATA     BYTE      P3M1
*SFR* 000000C0H   DATA     BYTE      P4
*SFR* 000000C0H.0 DATA     BIT       P40
*SFR* 000000C0H.1 DATA     BIT       P41
*SFR* 000000C0H.2 DATA     BIT       P42
*SFR* 000000C0H.3 DATA     BIT       P43
*SFR* 000000C0H.4 DATA     BIT       P44
*SFR* 000000C0H.7 DATA     BIT       P47
*SFR* 000000B4H   DATA     BYTE      P4M0
*SFR* 000000B3H   DATA     BYTE      P4M1
*SFR* 000000C8H   DATA     BYTE      P5
*SFR* 000000C8H.2 DATA     BIT       P52
*SFR* 000000CAH   DATA     BYTE      P5M0
L251 LINKER/LOCATER V4.66.93.0                                                        03/12/2024  22:09:15  PAGE 24


*SFR* 000000C9H   DATA     BYTE      P5M1
*SFR* 000000E8H   DATA     BYTE      P6
*SFR* 000000E8H.1 DATA     BIT       P61
*SFR* 000000E8H.2 DATA     BIT       P62
*SFR* 000000E8H.3 DATA     BIT       P63
*SFR* 000000E8H.5 DATA     BIT       P65
*SFR* 000000CCH   DATA     BYTE      P6M0
*SFR* 000000CBH   DATA     BYTE      P6M1
*SFR* 000000F8H   DATA     BYTE      P7
*SFR* 000000F8H.0 DATA     BIT       P70
*SFR* 000000F8H.1 DATA     BIT       P71
*SFR* 000000F8H.2 DATA     BIT       P72
*SFR* 000000F8H.3 DATA     BIT       P73
*SFR* 000000E2H   DATA     BYTE      P7M0
*SFR* 000000E1H   DATA     BYTE      P7M1
*SFR* 000000A2H   DATA     BYTE      P_SW1
*SFR* 000000BAH   DATA     BYTE      P_SW2
*SFR* 000000BBH   DATA     BYTE      P_SW3
*SFR* 00000087H   DATA     BYTE      PCON
      00FF8623H   CODE     ---       PID_ALL_Init
      000007BEH   EDATA    DWORD     Pid_Choose
*DEL*:00000000H   CODE     ---       Pid_Ctrl
      00FF6C39H   CODE     ---       Pid_Ctrl2
      00000227H   EDATA    ---       Pid_Dir
      00FF7303H   CODE     ---       PID_Inc_Init
      00FF6528H   CODE     ---       PID_increase
*DEL*:00000000H   CODE     ---       PID_Pos_Init
*DEL*:00000000H   CODE     ---       PID_position
      000001C7H   EDATA    ---       PidI_L
      000001F7H   EDATA    ---       PidI_R
      0000024FH   EDATA    ---       PidP_Angle
      00FF721EH   CODE     ---       pit_timer_ms
      00FF31D4H   CODE     NEAR LAB  printf
      00FF7AB7H   CODE     ---       printf_reverse_order
*SFR* 000000D0H   DATA     BYTE      PSW
      00FF8F78H   CODE     ---       putchar
      00FF91C5H   HCONST   ---       PWM_ARR_ADDR
      00FF91CDH   HCONST   ---       PWM_CCER_ADDR
      00FF91DDH   HCONST   ---       PWM_CCMR_ADDR
      00FF91A5H   HCONST   ---       PWM_CCR_ADDR
      00FF6FEFH   CODE     ---       pwm_duty
*DEL*:00000000H   CODE     ---       pwm_freq
      00FF48F3H   CODE     ---       pwm_init
      00FF4CCDH   CODE     ---       pwm_set_gpio
      00000101H   EDATA    BYTE      right_value
*SFR* 000000FFH   DATA     BYTE      RSTCFG
*SFR* 0000009BH   DATA     BYTE      S2BUF
*SFR* 0000009AH   DATA     BYTE      S2CON
*SFR* 000000ADH   DATA     BYTE      S3BUF
*SFR* 000000ACH   DATA     BYTE      S3CON
*SFR* 000000FEH   DATA     BYTE      S4BUF
*SFR* 000000FDH   DATA     BYTE      S4CON
*SFR* 00000099H   DATA     BYTE      SBUF
*SFR* 00000098H   DATA     BYTE      SCON
      00FF698EH   CODE     ---       Screen_Choose_Page
      00FF832DH   CODE     ---       Screen_Choose_Pid
      00FF8F9CH   CODE     ---       Screen_init
      000007A6H   EDATA    DWORD     Screen_Page
      00FF5E33H   CODE     ---       Screen_Pid_MAXDecrease
      00FF61C9H   CODE     ---       Screen_Pid_MAXIncrease
      00FF5C68H   CODE     ---       Screen_Pid_MINDecrease
      00FF5FFEH   CODE     ---       Screen_Pid_MINIncrease
*DEL*:00000000H   CODE     ---       seekfree_assistant_data_analysis
*DEL*:00000000H   CODE     ---       seekfree_assistant_init
      00000008H   EDATA    ---       seekfree_assistant_oscilloscope_data
L251 LINKER/LOCATER V4.66.93.0                                                        03/12/2024  22:09:15  PAGE 25


*DEL*:00000000H   CODE     ---       seekfree_assistant_oscilloscope_send
      0000004BH   EDATA    ---       seekfree_assistant_parameter
      00000043H   EDATA    ---       seekfree_assistant_parameter_update_flag
      00000D75H   EDATA    ---       seekfree_assistant_receive
      00000D77H   EDATA    ---       seekfree_assistant_transfer
      00FF5A62H   CODE     ---       set_clk
*DEL*:00000000H   CODE     ---       showimage
      00FF784BH   CODE     ---       SimpleNorRead
*SFR* 000000CEH   DATA     BYTE      SPCTL
*SFR* 000000CFH   DATA     BYTE      SPDAT
*DEL*:00000000H   CODE     ---       spi_change_mode
*DEL*:00000000H   CODE     ---       spi_change_pin
      00FF73D8H   CODE     ---       spi_init
      00FF8F8AH   CODE     ---       spi_mosi
*SFR* 000000CDH   DATA     BYTE      SPSTAT
      00FF3200H   CODE     ---       sqrt?_
      00000D21H   EDATA    LONG      sys_clk
*SFR* 000000D6H   DATA     BYTE      T2H
*SFR* 000000D7H   DATA     BYTE      T2L
*SFR* 000000D4H   DATA     BYTE      T3H
*SFR* 000000D5H   DATA     BYTE      T3L
*SFR* 000000D2H   DATA     BYTE      T4H
*SFR* 000000D3H   DATA     BYTE      T4L
*SFR* 000000DDH   DATA     BYTE      T4T3M
*SFR* 00000088H   DATA     BYTE      TCON
      00FF271DH   CODE     ---       tft_ascii
*SFR* 0000008CH   DATA     BYTE      TH0
*SFR* 0000008DH   DATA     BYTE      TH1
*SFR* 0000008AH   DATA     BYTE      TL0
*SFR* 0000008BH   DATA     BYTE      TL1
      00FF000EH   CODE     ---       TM0_Isr
      00FF000FH   CODE     ---       TM1_Isr
      00FF8A52H   CODE     ---       TM2_Isr
      00FF8FC7H   CODE     ---       TM3_Isr
      00FF8FCFH   CODE     ---       TM4_Isr
*SFR* 00000089H   DATA     BYTE      TMOD
      0000079CH   EDATA    INT       total_i
*SFR* 00000088H.4 DATA     BIT       TR0
*SFR* 00000088H.6 DATA     BIT       TR1
      00FF88CBH   CODE     ---       UART1_Isr
      00FF8DB4H   CODE     ---       UART2_Isr
      00FF8DD2H   CODE     ---       UART3_Isr
      00FF7D48H   CODE     ---       UART4_Isr
      00FF57B0H   CODE     ---       uart_init
*DEL*:00000000H   CODE     ---       uart_putbuff
      00FF7CD3H   CODE     ---       uart_putchar
*DEL*:00000000H   CODE     ---       uart_putstr
*SFR* 000000F4H   DATA     BYTE      USBCON
      00000AEAH   EDATA    ---       virtual_scope_data
*SFR* 000000A6H   DATA     BYTE      VRTRIM
*SFR* 000000C1H   DATA     BYTE      WDT_CONTR
      00FF8E76H   CODE     ---       wireless_ch573_callback
*DEL*:00000000H   CODE     ---       wireless_ch573_init
*DEL*:00000000H   CODE     ---       wireless_ch573_read_buff
*DEL*:00000000H   CODE     ---       wireless_ch573_send_buff
      00000DB2H   EDATA    INT       wireless_type
      00FF8E5CH   CODE     ---       wireless_uart_callback
*DEL*:00000000H   CODE     ---       wireless_uart_init
*DEL*:00000000H   CODE     ---       wireless_uart_read_buff
*DEL*:00000000H   CODE     ---       wireless_uart_send_buff
*SFR* 000000E9H   DATA     BYTE      WTST
      00000D29H   EDATA    WORD      zf_delay_ms
      00000D2BH   EDATA    WORD      zf_delay_us
      00FF4292H   CODE     ---       zf_sprintf

L251 LINKER/LOCATER V4.66.93.0                                                        03/12/2024  22:09:15  PAGE 26




SYMBOL TABLE OF MODULE:  .\Out_File\SEEKFREE (board)

      VALUE       REP       CLASS    TYPE      SYMBOL NAME
      ====================================================
      ---         MODULE    ---      ---       board
      00FF0006H   PUBLIC    CODE     ---       EnableGlobalIRQ
      00FF798BH   PUBLIC    CODE     ---       board_init
      00FF5A62H   PUBLIC    CODE     ---       set_clk
      00FF8F78H   PUBLIC    CODE     ---       putchar
      00000D21H   PUBLIC    EDATA    LONG      sys_clk
      00000094H   SFRSYM    DATA     BYTE      P0M0
      000000D0H   SFRSYM    DATA     BYTE      PSW
      000000BAH.7 SFRSYM    DATA     BIT       EAXFR
      0000009DH   SFRSYM    DATA     BYTE      IRCBAND
      00000097H   SFRSYM    DATA     BYTE      AUXR2
      000000EAH   SFRSYM    DATA     BYTE      CKCON
      000000EFH   SFRSYM    DATA     BYTE      AUXINTIF
      000000FDH   SFRSYM    DATA     BYTE      S4CON
      000000ACH   SFRSYM    DATA     BYTE      S3CON
      0000009AH   SFRSYM    DATA     BYTE      S2CON
      000000A6H   SFRSYM    DATA     BYTE      VRTRIM
      000000B7H   SFRSYM    DATA     BYTE      IPH
      000000CDH   SFRSYM    DATA     BYTE      SPSTAT
      000000DDH   SFRSYM    DATA     BYTE      T4T3M
      0000009FH   SFRSYM    DATA     BYTE      IRTRIM
      000000C1H   SFRSYM    DATA     BYTE      WDT_CONTR
      000000E9H   SFRSYM    DATA     BYTE      WTST
      000000DFH   SFRSYM    DATA     BYTE      IP3
      000000F4H   SFRSYM    DATA     BYTE      USBCON
      000000B5H   SFRSYM    DATA     BYTE      IP2
      000000FFH   SFRSYM    DATA     BYTE      RSTCFG
      000000F9H   SFRSYM    DATA     BYTE      LINICR
      0000008EH   SFRSYM    DATA     BYTE      AUXR
      000000AFH   SFRSYM    DATA     BYTE      IE2
      00000088H   SFRSYM    DATA     BYTE      TCON
      00000089H   SFRSYM    DATA     BYTE      TMOD
      00000098H   SFRSYM    DATA     BYTE      SCON
      000000F1H   SFRSYM    DATA     BYTE      CANICR
      00000087H   SFRSYM    DATA     BYTE      PCON
      000000BCH   SFRSYM    DATA     BYTE      ADC_CONTR
      000000E7H   SFRSYM    DATA     BYTE      CMPCR2
      000000E6H   SFRSYM    DATA     BYTE      CMPCR1
      000000DEH   SFRSYM    DATA     BYTE      ADCCFG
      000000B8H   SFRSYM    DATA     BYTE      IP
      0000008FH   SFRSYM    DATA     BYTE      INTCLKO
      000000EEH   SFRSYM    DATA     BYTE      IP3H
      000000B6H   SFRSYM    DATA     BYTE      IP2H
      000000A8H   SFRSYM    DATA     BYTE      IE
      000000BBH   SFRSYM    DATA     BYTE      P_SW3
      000000BAH   SFRSYM    DATA     BYTE      P_SW2
      000000A2H   SFRSYM    DATA     BYTE      P_SW1
      000000CEH   SFRSYM    DATA     BYTE      SPCTL
      000000F8H   SFRSYM    DATA     BYTE      P7
      000000A8H.7 SFRSYM    DATA     BIT       EA
      000000E1H   SFRSYM    DATA     BYTE      P7M1
      000000E8H   SFRSYM    DATA     BYTE      P6
      000000C8H   SFRSYM    DATA     BYTE      P5
      000000CBH   SFRSYM    DATA     BYTE      P6M1
      000000E2H   SFRSYM    DATA     BYTE      P7M0
      000000C0H   SFRSYM    DATA     BYTE      P4
      000000C9H   SFRSYM    DATA     BYTE      P5M1
      000000CCH   SFRSYM    DATA     BYTE      P6M0
      000000B0H   SFRSYM    DATA     BYTE      P3
L251 LINKER/LOCATER V4.66.93.0                                                        03/12/2024  22:09:15  PAGE 27


      000000B3H   SFRSYM    DATA     BYTE      P4M1
      000000CAH   SFRSYM    DATA     BYTE      P5M0
      000000A0H   SFRSYM    DATA     BYTE      P2
      000000B1H   SFRSYM    DATA     BYTE      P3M1
      000000B4H   SFRSYM    DATA     BYTE      P4M0
      00000090H   SFRSYM    DATA     BYTE      P1
      00000095H   SFRSYM    DATA     BYTE      P2M1
      000000B2H   SFRSYM    DATA     BYTE      P3M0
      00000080H   SFRSYM    DATA     BYTE      P0
      00000091H   SFRSYM    DATA     BYTE      P1M1
      00000096H   SFRSYM    DATA     BYTE      P2M0
      00000092H   SFRSYM    DATA     BYTE      P1M0
      00000093H   SFRSYM    DATA     BYTE      P0M1

      00FF5A62H   BLOCK     CODE     ---       LVL=0
      00FF5A62H   LINE      CODE     ---       #43
      00FF5A62H   LINE      CODE     ---       #46
      00FF5A65H   LINE      CODE     ---       #48
      00FF5A75H   LINE      CODE     ---       #51
      00FF5A82H   LINE      CODE     ---       #52
      00FF5A8FH   LINE      CODE     ---       #53
      00FF5A9CH   LINE      CODE     ---       #54
      00FF5AA0H   LINE      CODE     ---       #55
      00FF5AACH   LINE      CODE     ---       #56
      00FF5AAFH   LINE      CODE     ---       #57
      00FF5ABFH   LINE      CODE     ---       #60
      00FF5ACCH   LINE      CODE     ---       #61
      00FF5AD9H   LINE      CODE     ---       #62
      00FF5AE6H   LINE      CODE     ---       #63
      00FF5AEAH   LINE      CODE     ---       #64
      00FF5AF6H   LINE      CODE     ---       #65
      00FF5AF9H   LINE      CODE     ---       #66
      00FF5B09H   LINE      CODE     ---       #69
      00FF5B16H   LINE      CODE     ---       #70
      00FF5B23H   LINE      CODE     ---       #71
      00FF5B30H   LINE      CODE     ---       #72
      00FF5B34H   LINE      CODE     ---       #73
      00FF5B40H   LINE      CODE     ---       #74
      00FF5B43H   LINE      CODE     ---       #75
      00FF5B53H   LINE      CODE     ---       #79
      00FF5B60H   LINE      CODE     ---       #80
      00FF5B6DH   LINE      CODE     ---       #81
      00FF5B7AH   LINE      CODE     ---       #82
      00FF5B7EH   LINE      CODE     ---       #83
      00FF5B8AH   LINE      CODE     ---       #84
      00FF5B8DH   LINE      CODE     ---       #85
      00FF5B9DH   LINE      CODE     ---       #88
      00FF5BAAH   LINE      CODE     ---       #89
      00FF5BB7H   LINE      CODE     ---       #90
      00FF5BC4H   LINE      CODE     ---       #91
      00FF5BC8H   LINE      CODE     ---       #92
      00FF5BD4H   LINE      CODE     ---       #93
      00FF5BD7H   LINE      CODE     ---       #94
      00FF5BE7H   LINE      CODE     ---       #97
      00FF5BF4H   LINE      CODE     ---       #98
      00FF5C01H   LINE      CODE     ---       #99
      00FF5C0EH   LINE      CODE     ---       #100
      00FF5C12H   LINE      CODE     ---       #101
      00FF5C1EH   LINE      CODE     ---       #102
      00FF5C20H   LINE      CODE     ---       #105
      00FF5C2CH   LINE      CODE     ---       #107
      00FF5C39H   LINE      CODE     ---       #108
      00FF5C46H   LINE      CODE     ---       #109
      00FF5C53H   LINE      CODE     ---       #110
      00FF5C57H   LINE      CODE     ---       #111
L251 LINKER/LOCATER V4.66.93.0                                                        03/12/2024  22:09:15  PAGE 28


      00FF5C63H   LINE      CODE     ---       #112
      00FF5C63H   LINE      CODE     ---       #114
      00FF5C67H   LINE      CODE     ---       #115
      ---         BLOCKEND  ---      ---       LVL=0

      00FF798BH   BLOCK     CODE     ---       LVL=0
      00FF798BH   LINE      CODE     ---       #121
      00FF798BH   LINE      CODE     ---       #123
      00FF798FH   LINE      CODE     ---       #124
      00FF7992H   LINE      CODE     ---       #125
      00FF7995H   LINE      CODE     ---       #126
      00FF7998H   LINE      CODE     ---       #127
      00FF799CH   LINE      CODE     ---       #137
      00FF79A3H   LINE      CODE     ---       #143
      00FF79A6H   LINE      CODE     ---       #145
      00FF79A9H   LINE      CODE     ---       #146
      00FF79ACH   LINE      CODE     ---       #147
      00FF79B8H   LINE      CODE     ---       #149
      00FF79BBH   LINE      CODE     ---       #150
      00FF79BEH   LINE      CODE     ---       #151
      00FF79C1H   LINE      CODE     ---       #152
      00FF79C4H   LINE      CODE     ---       #153
      00FF79C7H   LINE      CODE     ---       #154
      00FF79CAH   LINE      CODE     ---       #155
      00FF79CDH   LINE      CODE     ---       #156
      00FF79D0H   LINE      CODE     ---       #157
      00FF79D3H   LINE      CODE     ---       #158
      00FF79D6H   LINE      CODE     ---       #159
      00FF79D9H   LINE      CODE     ---       #160
      00FF79DCH   LINE      CODE     ---       #161
      00FF79DFH   LINE      CODE     ---       #162
      00FF79E2H   LINE      CODE     ---       #163
      00FF79E5H   LINE      CODE     ---       #164
      00FF79E8H   LINE      CODE     ---       #166
      00FF79EBH   LINE      CODE     ---       #167
      00FF79EEH   LINE      CODE     ---       #168
      00FF79F1H   LINE      CODE     ---       #169
      00FF79F4H   LINE      CODE     ---       #170
      00FF79F7H   LINE      CODE     ---       #171
      00FF79FAH   LINE      CODE     ---       #172
      00FF79FDH   LINE      CODE     ---       #173
      00FF7A00H   LINE      CODE     ---       #174
      00FF7A03H   LINE      CODE     ---       #176
      00FF7A1EH   LINE      CODE     ---       #177
      00FF7A21H   LINE      CODE     ---       #178
      ---         BLOCKEND  ---      ---       LVL=0

      00FF8F78H   BLOCK     CODE     ---       LVL=0
      00000DF8H   SYMBOL    EDATA    CHAR      c
      00FF8F78H   LINE      CODE     ---       #183
      00FF8F7CH   LINE      CODE     ---       #185
      00FF8F85H   LINE      CODE     ---       #187
      00FF8F89H   LINE      CODE     ---       #188
      ---         BLOCKEND  ---      ---       LVL=0

      00FF0006H   BLOCK     CODE     ---       LVL=0
      00FF0006H   LINE      CODE     ---       #197
      00FF0006H   LINE      CODE     ---       #199
      00FF0009H   LINE      CODE     ---       #200
      ---         BLOCKEND  ---      ---       LVL=0

      ---         MODULE    ---      ---       common
      00000DB2H   PUBLIC    EDATA    INT       wireless_type
      000000D0H   SFRSYM    DATA     BYTE      PSW
      0000009DH   SFRSYM    DATA     BYTE      IRCBAND
L251 LINKER/LOCATER V4.66.93.0                                                        03/12/2024  22:09:15  PAGE 29


      00000097H   SFRSYM    DATA     BYTE      AUXR2
      000000EFH   SFRSYM    DATA     BYTE      AUXINTIF
      000000FDH   SFRSYM    DATA     BYTE      S4CON
      000000ACH   SFRSYM    DATA     BYTE      S3CON
      0000009AH   SFRSYM    DATA     BYTE      S2CON
      000000B7H   SFRSYM    DATA     BYTE      IPH
      000000CDH   SFRSYM    DATA     BYTE      SPSTAT
      000000DDH   SFRSYM    DATA     BYTE      T4T3M
      000000C1H   SFRSYM    DATA     BYTE      WDT_CONTR
      000000DFH   SFRSYM    DATA     BYTE      IP3
      000000F4H   SFRSYM    DATA     BYTE      USBCON
      000000B5H   SFRSYM    DATA     BYTE      IP2
      000000FFH   SFRSYM    DATA     BYTE      RSTCFG
      000000F9H   SFRSYM    DATA     BYTE      LINICR
      0000008EH   SFRSYM    DATA     BYTE      AUXR
      000000AFH   SFRSYM    DATA     BYTE      IE2
      00000088H   SFRSYM    DATA     BYTE      TCON
      00000098H   SFRSYM    DATA     BYTE      SCON
      000000F1H   SFRSYM    DATA     BYTE      CANICR
      00000087H   SFRSYM    DATA     BYTE      PCON
      000000BCH   SFRSYM    DATA     BYTE      ADC_CONTR
      000000E7H   SFRSYM    DATA     BYTE      CMPCR2
      000000E6H   SFRSYM    DATA     BYTE      CMPCR1
      000000B8H   SFRSYM    DATA     BYTE      IP
      0000008FH   SFRSYM    DATA     BYTE      INTCLKO
      000000EEH   SFRSYM    DATA     BYTE      IP3H
      000000B6H   SFRSYM    DATA     BYTE      IP2H
      000000A8H   SFRSYM    DATA     BYTE      IE
      000000BBH   SFRSYM    DATA     BYTE      P_SW3
      000000BAH   SFRSYM    DATA     BYTE      P_SW2
      000000A2H   SFRSYM    DATA     BYTE      P_SW1
      000000CEH   SFRSYM    DATA     BYTE      SPCTL
      000000F8H   SFRSYM    DATA     BYTE      P7
      000000E8H   SFRSYM    DATA     BYTE      P6
      000000C8H   SFRSYM    DATA     BYTE      P5
      000000C0H   SFRSYM    DATA     BYTE      P4
      000000B0H   SFRSYM    DATA     BYTE      P3
      000000A0H   SFRSYM    DATA     BYTE      P2
      00000090H   SFRSYM    DATA     BYTE      P1
      00000080H   SFRSYM    DATA     BYTE      P0

      ---         MODULE    ---      ---       zf_adc
      00FF8386H   PUBLIC    CODE     ---       adc_once
      00FF7630H   PUBLIC    CODE     ---       adc_init
      00000094H   SFRSYM    DATA     BYTE      P0M0
      000000D0H   SFRSYM    DATA     BYTE      PSW
      0000009DH   SFRSYM    DATA     BYTE      IRCBAND
      00000097H   SFRSYM    DATA     BYTE      AUXR2
      000000EFH   SFRSYM    DATA     BYTE      AUXINTIF
      000000FDH   SFRSYM    DATA     BYTE      S4CON
      000000ACH   SFRSYM    DATA     BYTE      S3CON
      0000009AH   SFRSYM    DATA     BYTE      S2CON
      000000B7H   SFRSYM    DATA     BYTE      IPH
      000000CDH   SFRSYM    DATA     BYTE      SPSTAT
      000000BEH   SFRSYM    DATA     BYTE      ADC_RESL
      000000DDH   SFRSYM    DATA     BYTE      T4T3M
      000000C1H   SFRSYM    DATA     BYTE      WDT_CONTR
      000000DFH   SFRSYM    DATA     BYTE      IP3
      000000F4H   SFRSYM    DATA     BYTE      USBCON
      000000B5H   SFRSYM    DATA     BYTE      IP2
      000000FFH   SFRSYM    DATA     BYTE      RSTCFG
      000000F9H   SFRSYM    DATA     BYTE      LINICR
      0000008EH   SFRSYM    DATA     BYTE      AUXR
      000000AFH   SFRSYM    DATA     BYTE      IE2
      00000088H   SFRSYM    DATA     BYTE      TCON
L251 LINKER/LOCATER V4.66.93.0                                                        03/12/2024  22:09:15  PAGE 30


      00000098H   SFRSYM    DATA     BYTE      SCON
      000000F1H   SFRSYM    DATA     BYTE      CANICR
      00000087H   SFRSYM    DATA     BYTE      PCON
      000000BCH   SFRSYM    DATA     BYTE      ADC_CONTR
      000000E7H   SFRSYM    DATA     BYTE      CMPCR2
      000000E6H   SFRSYM    DATA     BYTE      CMPCR1
      000000DEH   SFRSYM    DATA     BYTE      ADCCFG
      000000B8H   SFRSYM    DATA     BYTE      IP
      0000008FH   SFRSYM    DATA     BYTE      INTCLKO
      000000EEH   SFRSYM    DATA     BYTE      IP3H
      000000B6H   SFRSYM    DATA     BYTE      IP2H
      000000BDH   SFRSYM    DATA     BYTE      ADC_RES
      000000A8H   SFRSYM    DATA     BYTE      IE
      000000BBH   SFRSYM    DATA     BYTE      P_SW3
      000000BAH   SFRSYM    DATA     BYTE      P_SW2
      000000A2H   SFRSYM    DATA     BYTE      P_SW1
      000000CEH   SFRSYM    DATA     BYTE      SPCTL
      000000F8H   SFRSYM    DATA     BYTE      P7
      000000E8H   SFRSYM    DATA     BYTE      P6
      000000C8H   SFRSYM    DATA     BYTE      P5
      000000C0H   SFRSYM    DATA     BYTE      P4
      000000B0H   SFRSYM    DATA     BYTE      P3
      000000A0H   SFRSYM    DATA     BYTE      P2
      00000090H   SFRSYM    DATA     BYTE      P1
      00000080H   SFRSYM    DATA     BYTE      P0
      00000091H   SFRSYM    DATA     BYTE      P1M1
      00000092H   SFRSYM    DATA     BYTE      P1M0
      00000093H   SFRSYM    DATA     BYTE      P0M1

      00FF7630H   BLOCK     CODE     ---       LVL=0
      00000D25H   SYMBOL    EDATA    INT       adcn
      00000D27H   SYMBOL    EDATA    INT       speed
      00FF7630H   LINE      CODE     ---       #32
      00FF7638H   LINE      CODE     ---       #34
      00FF763BH   LINE      CODE     ---       #36
      00FF763EH   LINE      CODE     ---       #37
      00FF7646H   LINE      CODE     ---       #39
      00FF7658H   LINE      CODE     ---       #42
      00FF7673H   LINE      CODE     ---       #43
      00FF768CH   LINE      CODE     ---       #44
      00FF768EH   LINE      CODE     ---       #45
      00FF769EH   LINE      CODE     ---       #48
      00FF76B9H   LINE      CODE     ---       #49
      00FF76D2H   LINE      CODE     ---       #50
      00FF76D2H   LINE      CODE     ---       #52
      00FF76E1H   LINE      CODE     ---       #54
      00FF76E4H   LINE      CODE     ---       #55
      ---         BLOCKEND  ---      ---       LVL=0

      00FF8386H   BLOCK     CODE     ---       LVL=0
      00000C67H   SYMBOL    EDATA    INT       adcn
      00000C69H   SYMBOL    EDATA    INT       resolution
      00FF838EH   BLOCK     CODE     NEAR LAB  LVL=1
      00000C6BH   SYMBOL    EDATA    WORD      adc_value
      ---         BLOCKEND  ---      ---       LVL=1
      00FF8386H   LINE      CODE     ---       #66
      00FF838EH   LINE      CODE     ---       #67
      00FF838EH   LINE      CODE     ---       #70
      00FF8391H   LINE      CODE     ---       #71
      00FF8399H   LINE      CODE     ---       #73
      00FF839CH   LINE      CODE     ---       #74
      00FF83A1H   LINE      CODE     ---       #75
      00FF83A4H   LINE      CODE     ---       #77
      00FF83ACH   LINE      CODE     ---       #78
      00FF83B4H   LINE      CODE     ---       #79
L251 LINKER/LOCATER V4.66.93.0                                                        03/12/2024  22:09:15  PAGE 31


      00FF83C2H   LINE      CODE     ---       #81
      00FF83C5H   LINE      CODE     ---       #82
      00FF83C8H   LINE      CODE     ---       #84
      00FF83DBH   LINE      CODE     ---       #87
      00FF83DBH   LINE      CODE     ---       #88
      ---         BLOCKEND  ---      ---       LVL=0

      ---         MODULE    ---      ---       zf_delay
      00FF8953H   PUBLIC    CODE     ---       delay_init
      00FF8AC4H   PUBLIC    CODE     ---       delay_ms
      00000D29H   PUBLIC    EDATA    WORD      zf_delay_ms
      00000D2BH   PUBLIC    EDATA    WORD      zf_delay_us
      000000D0H   SFRSYM    DATA     BYTE      PSW
      0000009DH   SFRSYM    DATA     BYTE      IRCBAND
      00000097H   SFRSYM    DATA     BYTE      AUXR2
      000000EFH   SFRSYM    DATA     BYTE      AUXINTIF
      000000FDH   SFRSYM    DATA     BYTE      S4CON
      000000ACH   SFRSYM    DATA     BYTE      S3CON
      0000009AH   SFRSYM    DATA     BYTE      S2CON
      000000B7H   SFRSYM    DATA     BYTE      IPH
      000000CDH   SFRSYM    DATA     BYTE      SPSTAT
      000000DDH   SFRSYM    DATA     BYTE      T4T3M
      000000C1H   SFRSYM    DATA     BYTE      WDT_CONTR
      000000DFH   SFRSYM    DATA     BYTE      IP3
      000000F4H   SFRSYM    DATA     BYTE      USBCON
      000000B5H   SFRSYM    DATA     BYTE      IP2
      000000FFH   SFRSYM    DATA     BYTE      RSTCFG
      000000F9H   SFRSYM    DATA     BYTE      LINICR
      0000008EH   SFRSYM    DATA     BYTE      AUXR
      000000AFH   SFRSYM    DATA     BYTE      IE2
      00000088H   SFRSYM    DATA     BYTE      TCON
      00000098H   SFRSYM    DATA     BYTE      SCON
      000000F1H   SFRSYM    DATA     BYTE      CANICR
      00000087H   SFRSYM    DATA     BYTE      PCON
      000000BCH   SFRSYM    DATA     BYTE      ADC_CONTR
      000000E7H   SFRSYM    DATA     BYTE      CMPCR2
      000000E6H   SFRSYM    DATA     BYTE      CMPCR1
      000000B8H   SFRSYM    DATA     BYTE      IP
      0000008FH   SFRSYM    DATA     BYTE      INTCLKO
      000000EEH   SFRSYM    DATA     BYTE      IP3H
      000000B6H   SFRSYM    DATA     BYTE      IP2H
      000000A8H   SFRSYM    DATA     BYTE      IE
      000000BBH   SFRSYM    DATA     BYTE      P_SW3
      000000BAH   SFRSYM    DATA     BYTE      P_SW2
      000000A2H   SFRSYM    DATA     BYTE      P_SW1
      000000CEH   SFRSYM    DATA     BYTE      SPCTL
      000000F8H   SFRSYM    DATA     BYTE      P7
      000000E8H   SFRSYM    DATA     BYTE      P6
      000000C8H   SFRSYM    DATA     BYTE      P5
      000000C0H   SFRSYM    DATA     BYTE      P4
      000000B0H   SFRSYM    DATA     BYTE      P3
      000000A0H   SFRSYM    DATA     BYTE      P2
      00000090H   SFRSYM    DATA     BYTE      P1
      00000080H   SFRSYM    DATA     BYTE      P0

      00FF8953H   BLOCK     CODE     ---       LVL=0
      00FF8953H   LINE      CODE     ---       #34
      00FF8953H   LINE      CODE     ---       #36
      00FF8962H   LINE      CODE     ---       #37
      00FF8975H   LINE      CODE     ---       #38
      00FF8993H   LINE      CODE     ---       #40
      ---         BLOCKEND  ---      ---       LVL=0

      00FF8AC4H   BLOCK     CODE     ---       LVL=0
      00000D2DH   SYMBOL    EDATA    WORD      ms
L251 LINKER/LOCATER V4.66.93.0                                                        03/12/2024  22:09:15  PAGE 32


      00FF8AC8H   BLOCK     CODE     NEAR LAB  LVL=1
      00000D2FH   SYMBOL    EDATA    WORD      i
      ---         BLOCKEND  ---      ---       LVL=1
      00FF8AC4H   LINE      CODE     ---       #48
      00FF8AC8H   LINE      CODE     ---       #49
      00FF8AC8H   LINE      CODE     ---       #51
      00FF8AC8H   LINE      CODE     ---       #52
      00FF8AD0H   LINE      CODE     ---       #54
      00FF8AE4H   LINE      CODE     ---       #55
      00FF8AF8H   LINE      CODE     ---       #56
      ---         BLOCKEND  ---      ---       LVL=0
      00000C6DH   SYMBOL    EDATA    DWORD     us
      00000C71H   SYMBOL    EDATA    WORD      i

      ---         MODULE    ---      ---       zf_eeprom
      00000A72H   PUBLIC    EDATA    BYTE      ?iap_read_bytes?BYTE
      00000A7CH   PUBLIC    EDATA    BYTE      ?iap_write_bytes?BYTE
      000000D0H   SFRSYM    DATA     BYTE      PSW
      0000009DH   SFRSYM    DATA     BYTE      IRCBAND
      000000D0H.5 SFRSYM    DATA     BIT       F0
      00000097H   SFRSYM    DATA     BYTE      AUXR2
      000000C6H   SFRSYM    DATA     BYTE      IAP_TRIG
      000000EFH   SFRSYM    DATA     BYTE      AUXINTIF
      000000FDH   SFRSYM    DATA     BYTE      S4CON
      000000ACH   SFRSYM    DATA     BYTE      S3CON
      0000009AH   SFRSYM    DATA     BYTE      S2CON
      000000B7H   SFRSYM    DATA     BYTE      IPH
      000000CDH   SFRSYM    DATA     BYTE      SPSTAT
      000000DDH   SFRSYM    DATA     BYTE      T4T3M
      000000C1H   SFRSYM    DATA     BYTE      WDT_CONTR
      000000C2H   SFRSYM    DATA     BYTE      IAP_DATA
      000000DFH   SFRSYM    DATA     BYTE      IP3
      000000F4H   SFRSYM    DATA     BYTE      USBCON
      000000B5H   SFRSYM    DATA     BYTE      IP2
      000000FFH   SFRSYM    DATA     BYTE      RSTCFG
      000000C7H   SFRSYM    DATA     BYTE      IAP_CONTR
      000000F9H   SFRSYM    DATA     BYTE      LINICR
      0000008EH   SFRSYM    DATA     BYTE      AUXR
      000000AFH   SFRSYM    DATA     BYTE      IE2
      00000088H   SFRSYM    DATA     BYTE      TCON
      00000098H   SFRSYM    DATA     BYTE      SCON
      000000F5H   SFRSYM    DATA     BYTE      IAP_TPS
      000000F1H   SFRSYM    DATA     BYTE      CANICR
      00000087H   SFRSYM    DATA     BYTE      PCON
      000000BCH   SFRSYM    DATA     BYTE      ADC_CONTR
      000000E7H   SFRSYM    DATA     BYTE      CMPCR2
      000000E6H   SFRSYM    DATA     BYTE      CMPCR1
      000000C4H   SFRSYM    DATA     BYTE      IAP_ADDRL
      000000C3H   SFRSYM    DATA     BYTE      IAP_ADDRH
      000000F6H   SFRSYM    DATA     BYTE      IAP_ADDRE
      000000B8H   SFRSYM    DATA     BYTE      IP
      0000008FH   SFRSYM    DATA     BYTE      INTCLKO
      000000EEH   SFRSYM    DATA     BYTE      IP3H
      000000B6H   SFRSYM    DATA     BYTE      IP2H
      000000C5H   SFRSYM    DATA     BYTE      IAP_CMD
      000000A8H   SFRSYM    DATA     BYTE      IE
      000000BBH   SFRSYM    DATA     BYTE      P_SW3
      000000BAH   SFRSYM    DATA     BYTE      P_SW2
      000000A2H   SFRSYM    DATA     BYTE      P_SW1
      000000CEH   SFRSYM    DATA     BYTE      SPCTL
      000000F8H   SFRSYM    DATA     BYTE      P7
      000000A8H.7 SFRSYM    DATA     BIT       EA
      000000E8H   SFRSYM    DATA     BYTE      P6
      000000C8H   SFRSYM    DATA     BYTE      P5
      000000C0H   SFRSYM    DATA     BYTE      P4
L251 LINKER/LOCATER V4.66.93.0                                                        03/12/2024  22:09:15  PAGE 33


      000000B0H   SFRSYM    DATA     BYTE      P3
      000000A0H   SFRSYM    DATA     BYTE      P2
      00000090H   SFRSYM    DATA     BYTE      P1
      00000080H   SFRSYM    DATA     BYTE      P0
      00000DF9H   SYMBOL    EDATA    BYTE      write_time
      00000A72H   SYMBOL    EDATA    DWORD     addr
      00000A76H   SYMBOL    EDATA    ---       buf
      00000A7AH   SYMBOL    EDATA    WORD      len
      00000A7CH   SYMBOL    EDATA    DWORD     addr
      00000A80H   SYMBOL    EDATA    ---       buf
      00000A84H   SYMBOL    EDATA    WORD      len
      00000D31H   SYMBOL    EDATA    DWORD     addr

      ---         MODULE    ---      ---       zf_exti
      000000D0H   SFRSYM    DATA     BYTE      PSW
      0000009DH   SFRSYM    DATA     BYTE      IRCBAND
      00000097H   SFRSYM    DATA     BYTE      AUXR2
      000000EFH   SFRSYM    DATA     BYTE      AUXINTIF
      000000FDH   SFRSYM    DATA     BYTE      S4CON
      000000ACH   SFRSYM    DATA     BYTE      S3CON
      0000009AH   SFRSYM    DATA     BYTE      S2CON
      000000B7H   SFRSYM    DATA     BYTE      IPH
      000000CDH   SFRSYM    DATA     BYTE      SPSTAT
      000000DDH   SFRSYM    DATA     BYTE      T4T3M
      000000C1H   SFRSYM    DATA     BYTE      WDT_CONTR
      00000088H.2 SFRSYM    DATA     BIT       IT1
      000000A8H.2 SFRSYM    DATA     BIT       EX1
      00000088H.0 SFRSYM    DATA     BIT       IT0
      000000A8H.0 SFRSYM    DATA     BIT       EX0
      000000DFH   SFRSYM    DATA     BYTE      IP3
      000000F4H   SFRSYM    DATA     BYTE      USBCON
      000000B5H   SFRSYM    DATA     BYTE      IP2
      000000FFH   SFRSYM    DATA     BYTE      RSTCFG
      000000F9H   SFRSYM    DATA     BYTE      LINICR
      0000008EH   SFRSYM    DATA     BYTE      AUXR
      000000AFH   SFRSYM    DATA     BYTE      IE2
      00000088H   SFRSYM    DATA     BYTE      TCON
      00000098H   SFRSYM    DATA     BYTE      SCON
      000000F1H   SFRSYM    DATA     BYTE      CANICR
      00000087H   SFRSYM    DATA     BYTE      PCON
      000000BCH   SFRSYM    DATA     BYTE      ADC_CONTR
      000000E7H   SFRSYM    DATA     BYTE      CMPCR2
      000000E6H   SFRSYM    DATA     BYTE      CMPCR1
      000000B8H   SFRSYM    DATA     BYTE      IP
      0000008FH   SFRSYM    DATA     BYTE      INTCLKO
      000000EEH   SFRSYM    DATA     BYTE      IP3H
      000000B6H   SFRSYM    DATA     BYTE      IP2H
      000000A8H   SFRSYM    DATA     BYTE      IE
      000000BBH   SFRSYM    DATA     BYTE      P_SW3
      000000BAH   SFRSYM    DATA     BYTE      P_SW2
      000000A2H   SFRSYM    DATA     BYTE      P_SW1
      000000CEH   SFRSYM    DATA     BYTE      SPCTL
      000000F8H   SFRSYM    DATA     BYTE      P7
      000000E8H   SFRSYM    DATA     BYTE      P6
      000000C8H   SFRSYM    DATA     BYTE      P5
      000000C0H   SFRSYM    DATA     BYTE      P4
      000000B0H   SFRSYM    DATA     BYTE      P3
      000000A0H   SFRSYM    DATA     BYTE      P2
      00000090H   SFRSYM    DATA     BYTE      P1
      00000080H   SFRSYM    DATA     BYTE      P0
      00000D35H   SYMBOL    EDATA    INT       int_n
      00000D37H   SYMBOL    EDATA    INT       mode

      ---         MODULE    ---      ---       zf_gpio
      00FF7A22H   PUBLIC    CODE     ---       gpio_pull_set
L251 LINKER/LOCATER V4.66.93.0                                                        03/12/2024  22:09:15  PAGE 34


      00FF3985H   PUBLIC    CODE     ---       gpio_mode
      00000094H   SFRSYM    DATA     BYTE      P0M0
      000000D0H   SFRSYM    DATA     BYTE      PSW
      0000009DH   SFRSYM    DATA     BYTE      IRCBAND
      00000097H   SFRSYM    DATA     BYTE      AUXR2
      000000EFH   SFRSYM    DATA     BYTE      AUXINTIF
      000000FDH   SFRSYM    DATA     BYTE      S4CON
      000000ACH   SFRSYM    DATA     BYTE      S3CON
      0000009AH   SFRSYM    DATA     BYTE      S2CON
      000000B7H   SFRSYM    DATA     BYTE      IPH
      000000CDH   SFRSYM    DATA     BYTE      SPSTAT
      000000DDH   SFRSYM    DATA     BYTE      T4T3M
      000000C1H   SFRSYM    DATA     BYTE      WDT_CONTR
      000000DFH   SFRSYM    DATA     BYTE      IP3
      000000F4H   SFRSYM    DATA     BYTE      USBCON
      000000B5H   SFRSYM    DATA     BYTE      IP2
      000000FFH   SFRSYM    DATA     BYTE      RSTCFG
      000000F9H   SFRSYM    DATA     BYTE      LINICR
      0000008EH   SFRSYM    DATA     BYTE      AUXR
      000000AFH   SFRSYM    DATA     BYTE      IE2
      00000088H   SFRSYM    DATA     BYTE      TCON
      00000098H   SFRSYM    DATA     BYTE      SCON
      000000F1H   SFRSYM    DATA     BYTE      CANICR
      00000087H   SFRSYM    DATA     BYTE      PCON
      000000BCH   SFRSYM    DATA     BYTE      ADC_CONTR
      000000E7H   SFRSYM    DATA     BYTE      CMPCR2
      000000E6H   SFRSYM    DATA     BYTE      CMPCR1
      000000B8H   SFRSYM    DATA     BYTE      IP
      0000008FH   SFRSYM    DATA     BYTE      INTCLKO
      000000EEH   SFRSYM    DATA     BYTE      IP3H
      000000B6H   SFRSYM    DATA     BYTE      IP2H
      000000A8H   SFRSYM    DATA     BYTE      IE
      000000BBH   SFRSYM    DATA     BYTE      P_SW3
      000000BAH   SFRSYM    DATA     BYTE      P_SW2
      000000A2H   SFRSYM    DATA     BYTE      P_SW1
      000000CEH   SFRSYM    DATA     BYTE      SPCTL
      000000F8H   SFRSYM    DATA     BYTE      P7
      000000E1H   SFRSYM    DATA     BYTE      P7M1
      000000E8H   SFRSYM    DATA     BYTE      P6
      000000C8H   SFRSYM    DATA     BYTE      P5
      000000CBH   SFRSYM    DATA     BYTE      P6M1
      000000E2H   SFRSYM    DATA     BYTE      P7M0
      000000C0H   SFRSYM    DATA     BYTE      P4
      000000C9H   SFRSYM    DATA     BYTE      P5M1
      000000CCH   SFRSYM    DATA     BYTE      P6M0
      000000B0H   SFRSYM    DATA     BYTE      P3
      000000B3H   SFRSYM    DATA     BYTE      P4M1
      000000CAH   SFRSYM    DATA     BYTE      P5M0
      000000A0H   SFRSYM    DATA     BYTE      P2
      000000B1H   SFRSYM    DATA     BYTE      P3M1
      000000B4H   SFRSYM    DATA     BYTE      P4M0
      00000090H   SFRSYM    DATA     BYTE      P1
      00000095H   SFRSYM    DATA     BYTE      P2M1
      000000B2H   SFRSYM    DATA     BYTE      P3M0
      00000080H   SFRSYM    DATA     BYTE      P0
      00000091H   SFRSYM    DATA     BYTE      P1M1
      00000096H   SFRSYM    DATA     BYTE      P2M0
      00000092H   SFRSYM    DATA     BYTE      P1M0
      00000093H   SFRSYM    DATA     BYTE      P0M1

      00FF7A22H   BLOCK     CODE     ---       LVL=0
      00000D39H   SYMBOL    EDATA    INT       pin
      00000D3BH   SYMBOL    EDATA    INT       pull
      00FF7A22H   LINE      CODE     ---       #33
      00FF7A2AH   LINE      CODE     ---       #35
L251 LINKER/LOCATER V4.66.93.0                                                        03/12/2024  22:09:15  PAGE 35


      00FF7A36H   LINE      CODE     ---       #37
      00FF7A6FH   LINE      CODE     ---       #38
      00FF7A71H   LINE      CODE     ---       #39
      00FF7A7BH   LINE      CODE     ---       #41
      00FF7AB6H   LINE      CODE     ---       #42
      ---         BLOCKEND  ---      ---       LVL=0

      00FF3985H   BLOCK     CODE     ---       LVL=0
      00000D3DH   SYMBOL    EDATA    INT       pin
      00000D3FH   SYMBOL    EDATA    INT       mode
      00FF3985H   LINE      CODE     ---       #54
      00FF398DH   LINE      CODE     ---       #56
      00FF399AH   LINE      CODE     ---       #58
      00FF39AAH   LINE      CODE     ---       #60
      00FF39C5H   LINE      CODE     ---       #61
      00FF39E0H   LINE      CODE     ---       #62
      00FF39E0H   LINE      CODE     ---       #63
      00FF39F2H   LINE      CODE     ---       #65
      00FF3A0DH   LINE      CODE     ---       #66
      00FF3A28H   LINE      CODE     ---       #67
      00FF3A28H   LINE      CODE     ---       #68
      00FF3A3AH   LINE      CODE     ---       #70
      00FF3A55H   LINE      CODE     ---       #71
      00FF3A70H   LINE      CODE     ---       #72
      00FF3A70H   LINE      CODE     ---       #74
      00FF3A82H   LINE      CODE     ---       #76
      00FF3A9DH   LINE      CODE     ---       #77
      00FF3AB8H   LINE      CODE     ---       #78
      00FF3AB8H   LINE      CODE     ---       #79
      00FF3ACAH   LINE      CODE     ---       #81
      00FF3AE5H   LINE      CODE     ---       #82
      00FF3B00H   LINE      CODE     ---       #83
      00FF3B00H   LINE      CODE     ---       #84
      00FF3B12H   LINE      CODE     ---       #86
      00FF3B2DH   LINE      CODE     ---       #87
      00FF3B48H   LINE      CODE     ---       #88
      00FF3B48H   LINE      CODE     ---       #89
      00FF3B5AH   LINE      CODE     ---       #91
      00FF3B75H   LINE      CODE     ---       #92
      00FF3B90H   LINE      CODE     ---       #93
      00FF3B90H   LINE      CODE     ---       #94
      00FF3BA5H   LINE      CODE     ---       #96
      00FF3BC0H   LINE      CODE     ---       #97
      00FF3BDBH   LINE      CODE     ---       #98
      00FF3BDEH   LINE      CODE     ---       #100
      00FF3BEDH   LINE      CODE     ---       #102
      00FF3BFDH   LINE      CODE     ---       #104
      00FF3C18H   LINE      CODE     ---       #105
      00FF3C31H   LINE      CODE     ---       #106
      00FF3C31H   LINE      CODE     ---       #107
      00FF3C43H   LINE      CODE     ---       #109
      00FF3C5EH   LINE      CODE     ---       #110
      00FF3C77H   LINE      CODE     ---       #111
      00FF3C77H   LINE      CODE     ---       #112
      00FF3C89H   LINE      CODE     ---       #114
      00FF3CA4H   LINE      CODE     ---       #115
      00FF3CBDH   LINE      CODE     ---       #116
      00FF3CBDH   LINE      CODE     ---       #118
      00FF3CCFH   LINE      CODE     ---       #120
      00FF3CEAH   LINE      CODE     ---       #121
      00FF3D03H   LINE      CODE     ---       #122
      00FF3D03H   LINE      CODE     ---       #123
      00FF3D15H   LINE      CODE     ---       #125
      00FF3D30H   LINE      CODE     ---       #126
      00FF3D49H   LINE      CODE     ---       #127
L251 LINKER/LOCATER V4.66.93.0                                                        03/12/2024  22:09:15  PAGE 36


      00FF3D49H   LINE      CODE     ---       #128
      00FF3D5BH   LINE      CODE     ---       #130
      00FF3D76H   LINE      CODE     ---       #131
      00FF3D8FH   LINE      CODE     ---       #132
      00FF3D8FH   LINE      CODE     ---       #133
      00FF3DA1H   LINE      CODE     ---       #135
      00FF3DBCH   LINE      CODE     ---       #136
      00FF3DD5H   LINE      CODE     ---       #137
      00FF3DD5H   LINE      CODE     ---       #138
      00FF3DEAH   LINE      CODE     ---       #140
      00FF3E05H   LINE      CODE     ---       #141
      00FF3E1EH   LINE      CODE     ---       #142
      00FF3E21H   LINE      CODE     ---       #145
      00FF3E30H   LINE      CODE     ---       #147
      00FF3E40H   LINE      CODE     ---       #149
      00FF3E59H   LINE      CODE     ---       #150
      00FF3E74H   LINE      CODE     ---       #151
      00FF3E74H   LINE      CODE     ---       #152
      00FF3E86H   LINE      CODE     ---       #154
      00FF3E9FH   LINE      CODE     ---       #155
      00FF3EBAH   LINE      CODE     ---       #156
      00FF3EBAH   LINE      CODE     ---       #157
      00FF3ECCH   LINE      CODE     ---       #159
      00FF3EE5H   LINE      CODE     ---       #160
      00FF3F00H   LINE      CODE     ---       #161
      00FF3F00H   LINE      CODE     ---       #163
      00FF3F12H   LINE      CODE     ---       #165
      00FF3F2BH   LINE      CODE     ---       #166
      00FF3F46H   LINE      CODE     ---       #167
      00FF3F46H   LINE      CODE     ---       #168
      00FF3F58H   LINE      CODE     ---       #170
      00FF3F71H   LINE      CODE     ---       #171
      00FF3F8CH   LINE      CODE     ---       #172
      00FF3F8CH   LINE      CODE     ---       #173
      00FF3F9EH   LINE      CODE     ---       #175
      00FF3FB7H   LINE      CODE     ---       #176
      00FF3FD2H   LINE      CODE     ---       #177
      00FF3FD2H   LINE      CODE     ---       #178
      00FF3FE4H   LINE      CODE     ---       #180
      00FF3FFDH   LINE      CODE     ---       #181
      00FF4018H   LINE      CODE     ---       #182
      00FF4018H   LINE      CODE     ---       #183
      00FF402DH   LINE      CODE     ---       #185
      00FF4046H   LINE      CODE     ---       #186
      00FF4061H   LINE      CODE     ---       #187
      00FF4064H   LINE      CODE     ---       #189
      00FF4073H   LINE      CODE     ---       #191
      00FF4083H   LINE      CODE     ---       #193
      00FF409CH   LINE      CODE     ---       #194
      00FF40B5H   LINE      CODE     ---       #195
      00FF40B5H   LINE      CODE     ---       #196
      00FF40C7H   LINE      CODE     ---       #198
      00FF40E0H   LINE      CODE     ---       #199
      00FF40F9H   LINE      CODE     ---       #200
      00FF40F9H   LINE      CODE     ---       #201
      00FF410BH   LINE      CODE     ---       #203
      00FF4124H   LINE      CODE     ---       #204
      00FF413DH   LINE      CODE     ---       #205
      00FF413DH   LINE      CODE     ---       #207
      00FF414FH   LINE      CODE     ---       #209
      00FF4168H   LINE      CODE     ---       #210
      00FF4181H   LINE      CODE     ---       #211
      00FF4181H   LINE      CODE     ---       #212
      00FF4193H   LINE      CODE     ---       #214
      00FF41ACH   LINE      CODE     ---       #215
L251 LINKER/LOCATER V4.66.93.0                                                        03/12/2024  22:09:15  PAGE 37


      00FF41C5H   LINE      CODE     ---       #216
      00FF41C5H   LINE      CODE     ---       #217
      00FF41D7H   LINE      CODE     ---       #219
      00FF41F0H   LINE      CODE     ---       #220
      00FF4209H   LINE      CODE     ---       #221
      00FF4209H   LINE      CODE     ---       #222
      00FF421BH   LINE      CODE     ---       #224
      00FF4234H   LINE      CODE     ---       #225
      00FF424DH   LINE      CODE     ---       #226
      00FF424DH   LINE      CODE     ---       #227
      00FF425FH   LINE      CODE     ---       #229
      00FF4278H   LINE      CODE     ---       #230
      00FF4291H   LINE      CODE     ---       #231
      00FF4291H   LINE      CODE     ---       #233
      ---         BLOCKEND  ---      ---       LVL=0

      ---         MODULE    ---      ---       zf_nvic
      000000D0H   SFRSYM    DATA     BYTE      PSW
      0000009DH   SFRSYM    DATA     BYTE      IRCBAND
      00000097H   SFRSYM    DATA     BYTE      AUXR2
      000000EFH   SFRSYM    DATA     BYTE      AUXINTIF
      000000FDH   SFRSYM    DATA     BYTE      S4CON
      000000ACH   SFRSYM    DATA     BYTE      S3CON
      0000009AH   SFRSYM    DATA     BYTE      S2CON
      000000B7H   SFRSYM    DATA     BYTE      IPH
      000000CDH   SFRSYM    DATA     BYTE      SPSTAT
      000000DDH   SFRSYM    DATA     BYTE      T4T3M
      000000C1H   SFRSYM    DATA     BYTE      WDT_CONTR
      000000DFH   SFRSYM    DATA     BYTE      IP3
      000000F4H   SFRSYM    DATA     BYTE      USBCON
      000000B5H   SFRSYM    DATA     BYTE      IP2
      000000FFH   SFRSYM    DATA     BYTE      RSTCFG
      000000F9H   SFRSYM    DATA     BYTE      LINICR
      0000008EH   SFRSYM    DATA     BYTE      AUXR
      000000AFH   SFRSYM    DATA     BYTE      IE2
      00000088H   SFRSYM    DATA     BYTE      TCON
      00000098H   SFRSYM    DATA     BYTE      SCON
      000000F1H   SFRSYM    DATA     BYTE      CANICR
      00000087H   SFRSYM    DATA     BYTE      PCON
      000000BCH   SFRSYM    DATA     BYTE      ADC_CONTR
      000000E7H   SFRSYM    DATA     BYTE      CMPCR2
      000000E6H   SFRSYM    DATA     BYTE      CMPCR1
      000000B8H   SFRSYM    DATA     BYTE      IP
      0000008FH   SFRSYM    DATA     BYTE      INTCLKO
      000000EEH   SFRSYM    DATA     BYTE      IP3H
      000000B6H   SFRSYM    DATA     BYTE      IP2H
      000000A8H   SFRSYM    DATA     BYTE      IE
      000000BBH   SFRSYM    DATA     BYTE      P_SW3
      000000BAH   SFRSYM    DATA     BYTE      P_SW2
      000000A2H   SFRSYM    DATA     BYTE      P_SW1
      000000CEH   SFRSYM    DATA     BYTE      SPCTL
      000000F8H   SFRSYM    DATA     BYTE      P7
      000000E8H   SFRSYM    DATA     BYTE      P6
      000000C8H   SFRSYM    DATA     BYTE      P5
      000000C0H   SFRSYM    DATA     BYTE      P4
      000000B0H   SFRSYM    DATA     BYTE      P3
      000000A0H   SFRSYM    DATA     BYTE      P2
      00000090H   SFRSYM    DATA     BYTE      P1
      00000080H   SFRSYM    DATA     BYTE      P0
      00000D79H   SYMBOL    EDATA    INT       irqn
      00000D7BH   SYMBOL    EDATA    BYTE      priority

      ---         MODULE    ---      ---       zf_pwm
      00FF6FEFH   PUBLIC    CODE     ---       pwm_duty
      00FF4CCDH   PUBLIC    CODE     ---       pwm_set_gpio
L251 LINKER/LOCATER V4.66.93.0                                                        03/12/2024  22:09:15  PAGE 38


      00FF48F3H   PUBLIC    CODE     ---       pwm_init
      00FF91A5H   PUBLIC    HCONST   ---       PWM_CCR_ADDR
      00FF91C5H   PUBLIC    HCONST   ---       PWM_ARR_ADDR
      00FF91CDH   PUBLIC    HCONST   ---       PWM_CCER_ADDR
      00FF91DDH   PUBLIC    HCONST   ---       PWM_CCMR_ADDR
      0000083DH   PUBLIC    EDATA    BYTE      ?pwm_init?BYTE
      00000851H   PUBLIC    EDATA    BYTE      ?pwm_freq?BYTE
      000000D0H   SFRSYM    DATA     BYTE      PSW
      0000009DH   SFRSYM    DATA     BYTE      IRCBAND
      00000097H   SFRSYM    DATA     BYTE      AUXR2
      000000EFH   SFRSYM    DATA     BYTE      AUXINTIF
      000000FDH   SFRSYM    DATA     BYTE      S4CON
      000000ACH   SFRSYM    DATA     BYTE      S3CON
      0000009AH   SFRSYM    DATA     BYTE      S2CON
      000000B7H   SFRSYM    DATA     BYTE      IPH
      000000CDH   SFRSYM    DATA     BYTE      SPSTAT
      000000DDH   SFRSYM    DATA     BYTE      T4T3M
      000000C1H   SFRSYM    DATA     BYTE      WDT_CONTR
      000000DFH   SFRSYM    DATA     BYTE      IP3
      000000F4H   SFRSYM    DATA     BYTE      USBCON
      000000B5H   SFRSYM    DATA     BYTE      IP2
      000000FFH   SFRSYM    DATA     BYTE      RSTCFG
      000000F9H   SFRSYM    DATA     BYTE      LINICR
      0000008EH   SFRSYM    DATA     BYTE      AUXR
      000000AFH   SFRSYM    DATA     BYTE      IE2
      00000088H   SFRSYM    DATA     BYTE      TCON
      00000098H   SFRSYM    DATA     BYTE      SCON
      000000F1H   SFRSYM    DATA     BYTE      CANICR
      00000087H   SFRSYM    DATA     BYTE      PCON
      000000BCH   SFRSYM    DATA     BYTE      ADC_CONTR
      000000E7H   SFRSYM    DATA     BYTE      CMPCR2
      000000E6H   SFRSYM    DATA     BYTE      CMPCR1
      000000B8H   SFRSYM    DATA     BYTE      IP
      0000008FH   SFRSYM    DATA     BYTE      INTCLKO
      000000EEH   SFRSYM    DATA     BYTE      IP3H
      000000B6H   SFRSYM    DATA     BYTE      IP2H
      000000A8H   SFRSYM    DATA     BYTE      IE
      000000BBH   SFRSYM    DATA     BYTE      P_SW3
      000000BAH   SFRSYM    DATA     BYTE      P_SW2
      000000A2H   SFRSYM    DATA     BYTE      P_SW1
      000000CEH   SFRSYM    DATA     BYTE      SPCTL
      000000F8H   SFRSYM    DATA     BYTE      P7
      000000E8H   SFRSYM    DATA     BYTE      P6
      000000C8H   SFRSYM    DATA     BYTE      P5
      000000C0H   SFRSYM    DATA     BYTE      P4
      000000B0H   SFRSYM    DATA     BYTE      P3
      000000A0H   SFRSYM    DATA     BYTE      P2
      00000090H   SFRSYM    DATA     BYTE      P1
      00000080H   SFRSYM    DATA     BYTE      P0

      00FF4CCDH   BLOCK     CODE     ---       LVL=0
      00000DB4H   SYMBOL    EDATA    INT       pwmch
      00FF4CCDH   LINE      CODE     ---       #49
      00FF4CD1H   LINE      CODE     ---       #51
      00FF4E46H   LINE      CODE     ---       #53
      00FF4E46H   LINE      CODE     ---       #55
      00FF4E51H   LINE      CODE     ---       #56
      00FF4E54H   LINE      CODE     ---       #58
      00FF4E54H   LINE      CODE     ---       #60
      00FF4E5FH   LINE      CODE     ---       #61
      00FF4E62H   LINE      CODE     ---       #63
      00FF4E62H   LINE      CODE     ---       #65
      00FF4E6DH   LINE      CODE     ---       #66
      00FF4E70H   LINE      CODE     ---       #68
      00FF4E70H   LINE      CODE     ---       #70
L251 LINKER/LOCATER V4.66.93.0                                                        03/12/2024  22:09:15  PAGE 39


      00FF4E7BH   LINE      CODE     ---       #71
      00FF4E7EH   LINE      CODE     ---       #73
      00FF4E7EH   LINE      CODE     ---       #75
      00FF4E89H   LINE      CODE     ---       #76
      00FF4E8CH   LINE      CODE     ---       #78
      00FF4E8CH   LINE      CODE     ---       #80
      00FF4E97H   LINE      CODE     ---       #81
      00FF4E9AH   LINE      CODE     ---       #84
      00FF4E9AH   LINE      CODE     ---       #86
      00FF4EA5H   LINE      CODE     ---       #87
      00FF4EA8H   LINE      CODE     ---       #89
      00FF4EA8H   LINE      CODE     ---       #91
      00FF4EB3H   LINE      CODE     ---       #92
      00FF4EB6H   LINE      CODE     ---       #94
      00FF4EB6H   LINE      CODE     ---       #96
      00FF4EC1H   LINE      CODE     ---       #97
      00FF4EC4H   LINE      CODE     ---       #99
      00FF4EC4H   LINE      CODE     ---       #101
      00FF4ECFH   LINE      CODE     ---       #102
      00FF4ED2H   LINE      CODE     ---       #104
      00FF4ED2H   LINE      CODE     ---       #106
      00FF4EDDH   LINE      CODE     ---       #107
      00FF4EE0H   LINE      CODE     ---       #109
      00FF4EE0H   LINE      CODE     ---       #111
      00FF4EEBH   LINE      CODE     ---       #112
      00FF4EEEH   LINE      CODE     ---       #115
      00FF4EEEH   LINE      CODE     ---       #117
      00FF4EF9H   LINE      CODE     ---       #118
      00FF4EFCH   LINE      CODE     ---       #120
      00FF4EFCH   LINE      CODE     ---       #122
      00FF4F07H   LINE      CODE     ---       #123
      00FF4F0AH   LINE      CODE     ---       #125
      00FF4F0AH   LINE      CODE     ---       #127
      00FF4F15H   LINE      CODE     ---       #128
      00FF4F18H   LINE      CODE     ---       #130
      00FF4F18H   LINE      CODE     ---       #132
      00FF4F23H   LINE      CODE     ---       #133
      00FF4F26H   LINE      CODE     ---       #135
      00FF4F26H   LINE      CODE     ---       #137
      00FF4F31H   LINE      CODE     ---       #138
      00FF4F34H   LINE      CODE     ---       #140
      00FF4F34H   LINE      CODE     ---       #142
      00FF4F3FH   LINE      CODE     ---       #143
      00FF4F42H   LINE      CODE     ---       #147
      00FF4F42H   LINE      CODE     ---       #149
      00FF4F4DH   LINE      CODE     ---       #150
      00FF4F50H   LINE      CODE     ---       #152
      00FF4F50H   LINE      CODE     ---       #154
      00FF4F5BH   LINE      CODE     ---       #155
      00FF4F5EH   LINE      CODE     ---       #157
      00FF4F5EH   LINE      CODE     ---       #159
      00FF4F69H   LINE      CODE     ---       #160
      00FF4F6CH   LINE      CODE     ---       #162
      00FF4F6CH   LINE      CODE     ---       #164
      00FF4F77H   LINE      CODE     ---       #165
      00FF4F7AH   LINE      CODE     ---       #167
      00FF4F7AH   LINE      CODE     ---       #169
      00FF4F85H   LINE      CODE     ---       #170
      00FF4F88H   LINE      CODE     ---       #172
      00FF4F88H   LINE      CODE     ---       #174
      00FF4F93H   LINE      CODE     ---       #175
      00FF4F96H   LINE      CODE     ---       #177
      00FF4F96H   LINE      CODE     ---       #179
      00FF4FA1H   LINE      CODE     ---       #180
      00FF4FA4H   LINE      CODE     ---       #182
L251 LINKER/LOCATER V4.66.93.0                                                        03/12/2024  22:09:15  PAGE 40


      00FF4FA4H   LINE      CODE     ---       #184
      00FF4FAFH   LINE      CODE     ---       #185
      00FF4FB2H   LINE      CODE     ---       #189
      00FF4FB2H   LINE      CODE     ---       #191
      00FF4FBDH   LINE      CODE     ---       #192
      00FF4FC0H   LINE      CODE     ---       #194
      00FF4FC0H   LINE      CODE     ---       #196
      00FF4FCBH   LINE      CODE     ---       #197
      00FF4FCEH   LINE      CODE     ---       #199
      00FF4FCEH   LINE      CODE     ---       #201
      00FF4FD7H   LINE      CODE     ---       #202
      00FF4FDAH   LINE      CODE     ---       #204
      00FF4FDAH   LINE      CODE     ---       #206
      00FF4FE5H   LINE      CODE     ---       #207
      00FF4FE8H   LINE      CODE     ---       #210
      00FF4FE8H   LINE      CODE     ---       #212
      00FF4FF3H   LINE      CODE     ---       #213
      00FF4FF6H   LINE      CODE     ---       #215
      00FF4FF6H   LINE      CODE     ---       #217
      00FF5001H   LINE      CODE     ---       #218
      00FF5004H   LINE      CODE     ---       #220
      00FF5004H   LINE      CODE     ---       #222
      00FF500FH   LINE      CODE     ---       #223
      00FF5011H   LINE      CODE     ---       #225
      00FF5011H   LINE      CODE     ---       #227
      00FF501CH   LINE      CODE     ---       #228
      00FF501EH   LINE      CODE     ---       #232
      00FF501EH   LINE      CODE     ---       #234
      00FF5029H   LINE      CODE     ---       #235
      00FF502BH   LINE      CODE     ---       #237
      00FF502BH   LINE      CODE     ---       #239
      00FF5036H   LINE      CODE     ---       #240
      00FF5038H   LINE      CODE     ---       #242
      00FF5038H   LINE      CODE     ---       #244
      00FF5043H   LINE      CODE     ---       #245
      00FF5045H   LINE      CODE     ---       #247
      00FF5045H   LINE      CODE     ---       #249
      00FF5050H   LINE      CODE     ---       #250
      00FF5052H   LINE      CODE     ---       #254
      00FF5052H   LINE      CODE     ---       #256
      00FF505DH   LINE      CODE     ---       #257
      00FF505FH   LINE      CODE     ---       #259
      00FF505FH   LINE      CODE     ---       #261
      00FF506AH   LINE      CODE     ---       #262
      00FF506CH   LINE      CODE     ---       #264
      00FF506CH   LINE      CODE     ---       #266
      00FF5077H   LINE      CODE     ---       #267
      00FF5079H   LINE      CODE     ---       #269
      00FF5079H   LINE      CODE     ---       #271
      00FF5084H   LINE      CODE     ---       #272
      00FF5084H   LINE      CODE     ---       #275
      00FF5084H   LINE      CODE     ---       #277
      ---         BLOCKEND  ---      ---       LVL=0

      00FF48F3H   BLOCK     CODE     ---       LVL=0
      0000083DH   SYMBOL    EDATA    INT       pwmch
      0000083FH   SYMBOL    EDATA    DWORD     freq
      00000843H   SYMBOL    EDATA    DWORD     duty
      00FF48FBH   BLOCK     CODE     NEAR LAB  LVL=1
      00000847H   SYMBOL    EDATA    DWORD     match_temp
      0000084BH   SYMBOL    EDATA    DWORD     period_temp
      0000084FH   SYMBOL    EDATA    WORD      freq_div
      ---         BLOCKEND  ---      ---       LVL=1
      00FF48F3H   LINE      CODE     ---       #290
      00FF48FBH   LINE      CODE     ---       #291
L251 LINKER/LOCATER V4.66.93.0                                                        03/12/2024  22:09:15  PAGE 41


      00FF48FBH   LINE      CODE     ---       #295
      00FF4901H   LINE      CODE     ---       #298
      00FF4904H   LINE      CODE     ---       #301
      00FF490BH   LINE      CODE     ---       #305
      00FF491EH   LINE      CODE     ---       #306
      00FF492DH   LINE      CODE     ---       #307
      00FF4948H   LINE      CODE     ---       #309
      00FF4952H   LINE      CODE     ---       #311
      00FF4979H   LINE      CODE     ---       #312
      00FF497BH   LINE      CODE     ---       #315
      00FF4989H   LINE      CODE     ---       #316
      00FF4989H   LINE      CODE     ---       #319
      00FF4998H   LINE      CODE     ---       #322
      00FF49C9H   LINE      CODE     ---       #323
      00FF4A00H   LINE      CODE     ---       #326
      00FF4A52H   LINE      CODE     ---       #329
      00FF4A65H   LINE      CODE     ---       #330
      00FF4A74H   LINE      CODE     ---       #332
      00FF4A81H   LINE      CODE     ---       #333
      00FF4A8EH   LINE      CODE     ---       #334
      00FF4A91H   LINE      CODE     ---       #337
      00FF4ACFH   LINE      CODE     ---       #338
      00FF4B02H   LINE      CODE     ---       #341
      00FF4B62H   LINE      CODE     ---       #345
      00FF4B75H   LINE      CODE     ---       #346
      00FF4B84H   LINE      CODE     ---       #348
      00FF4B91H   LINE      CODE     ---       #349
      00FF4B9EH   LINE      CODE     ---       #350
      00FF4B9EH   LINE      CODE     ---       #353
      00FF4BD0H   LINE      CODE     ---       #354
      00FF4C08H   LINE      CODE     ---       #357
      00FF4C36H   LINE      CODE     ---       #358
      00FF4C6AH   LINE      CODE     ---       #361
      00FF4C9BH   LINE      CODE     ---       #362
      00FF4CCCH   LINE      CODE     ---       #367
      ---         BLOCKEND  ---      ---       LVL=0

      00FF6FEFH   BLOCK     CODE     ---       LVL=0
      00000901H   SYMBOL    EDATA    INT       pwmch
      00000903H   SYMBOL    EDATA    DWORD     duty
      00FF6FF7H   BLOCK     CODE     NEAR LAB  LVL=1
      00000907H   SYMBOL    EDATA    DWORD     match_temp
      0000090BH   SYMBOL    EDATA    DWORD     arr
      ---         BLOCKEND  ---      ---       LVL=1
      00FF6FEFH   LINE      CODE     ---       #377
      00FF6FF7H   LINE      CODE     ---       #378
      00FF6FF7H   LINE      CODE     ---       #380
      00FF7063H   LINE      CODE     ---       #384
      00FF706DH   LINE      CODE     ---       #386
      00FF7094H   LINE      CODE     ---       #387
      00FF7096H   LINE      CODE     ---       #390
      00FF70A4H   LINE      CODE     ---       #391
      00FF70A4H   LINE      CODE     ---       #396
      00FF70D2H   LINE      CODE     ---       #397
      00FF7106H   LINE      CODE     ---       #401
      ---         BLOCKEND  ---      ---       LVL=0
      00000851H   SYMBOL    EDATA    INT       pwmch
      00000853H   SYMBOL    EDATA    DWORD     freq
      00000857H   SYMBOL    EDATA    DWORD     duty
      0000085BH   SYMBOL    EDATA    DWORD     match_temp
      0000085FH   SYMBOL    EDATA    DWORD     period_temp
      00000863H   SYMBOL    EDATA    WORD      freq_div

      ---         MODULE    ---      ---       zf_spi
      00FF73D8H   PUBLIC    CODE     ---       spi_init
L251 LINKER/LOCATER V4.66.93.0                                                        03/12/2024  22:09:15  PAGE 42


      00FF8F8AH   PUBLIC    CODE     ---       spi_mosi
      00000947H   PUBLIC    EDATA    BYTE      ?spi_init?BYTE
      000000CFH   SFRSYM    DATA     BYTE      SPDAT
      000000D0H   SFRSYM    DATA     BYTE      PSW
      0000009DH   SFRSYM    DATA     BYTE      IRCBAND
      00000097H   SFRSYM    DATA     BYTE      AUXR2
      000000EFH   SFRSYM    DATA     BYTE      AUXINTIF
      000000FDH   SFRSYM    DATA     BYTE      S4CON
      000000ACH   SFRSYM    DATA     BYTE      S3CON
      0000009AH   SFRSYM    DATA     BYTE      S2CON
      000000B7H   SFRSYM    DATA     BYTE      IPH
      000000CDH   SFRSYM    DATA     BYTE      SPSTAT
      000000DDH   SFRSYM    DATA     BYTE      T4T3M
      000000C1H   SFRSYM    DATA     BYTE      WDT_CONTR
      000000DFH   SFRSYM    DATA     BYTE      IP3
      000000F4H   SFRSYM    DATA     BYTE      USBCON
      000000B5H   SFRSYM    DATA     BYTE      IP2
      000000FFH   SFRSYM    DATA     BYTE      RSTCFG
      000000F9H   SFRSYM    DATA     BYTE      LINICR
      0000008EH   SFRSYM    DATA     BYTE      AUXR
      000000AFH   SFRSYM    DATA     BYTE      IE2
      00000088H   SFRSYM    DATA     BYTE      TCON
      00000098H   SFRSYM    DATA     BYTE      SCON
      000000F1H   SFRSYM    DATA     BYTE      CANICR
      00000087H   SFRSYM    DATA     BYTE      PCON
      000000BCH   SFRSYM    DATA     BYTE      ADC_CONTR
      000000E7H   SFRSYM    DATA     BYTE      CMPCR2
      000000E6H   SFRSYM    DATA     BYTE      CMPCR1
      000000B8H   SFRSYM    DATA     BYTE      IP
      0000008FH   SFRSYM    DATA     BYTE      INTCLKO
      000000EEH   SFRSYM    DATA     BYTE      IP3H
      000000B6H   SFRSYM    DATA     BYTE      IP2H
      000000A8H   SFRSYM    DATA     BYTE      IE
      000000BBH   SFRSYM    DATA     BYTE      P_SW3
      000000BAH   SFRSYM    DATA     BYTE      P_SW2
      000000A2H   SFRSYM    DATA     BYTE      P_SW1
      000000CEH   SFRSYM    DATA     BYTE      SPCTL
      000000F8H   SFRSYM    DATA     BYTE      P7
      000000E8H   SFRSYM    DATA     BYTE      P6
      000000C8H   SFRSYM    DATA     BYTE      P5
      000000C0H   SFRSYM    DATA     BYTE      P4
      000000B0H   SFRSYM    DATA     BYTE      P3
      000000A0H   SFRSYM    DATA     BYTE      P2
      00000090H   SFRSYM    DATA     BYTE      P1
      00000080H   SFRSYM    DATA     BYTE      P0

      00FF73D8H   BLOCK     CODE     ---       LVL=0
      00000947H   SYMBOL    EDATA    INT       spi_n
      00000949H   SYMBOL    EDATA    INT       sck_pin
      0000094BH   SYMBOL    EDATA    INT       mosi_pin
      0000094DH   SYMBOL    EDATA    INT       miso_pin
      0000094FH   SYMBOL    EDATA    BYTE      mode
      00000950H   SYMBOL    EDATA    INT       mstr
      00000952H   SYMBOL    EDATA    INT       baud
      00FF73D8H   LINE      CODE     ---       #39
      00FF73ECH   LINE      CODE     ---       #48
      00FF73F8H   LINE      CODE     ---       #50
      00FF7407H   LINE      CODE     ---       #51
      00FF7407H   LINE      CODE     ---       #53
      00FF7413H   LINE      CODE     ---       #55
      00FF7422H   LINE      CODE     ---       #56
      00FF7422H   LINE      CODE     ---       #58
      00FF742EH   LINE      CODE     ---       #60
      00FF743DH   LINE      CODE     ---       #61
      00FF743DH   LINE      CODE     ---       #64
L251 LINKER/LOCATER V4.66.93.0                                                        03/12/2024  22:09:15  PAGE 43


      00FF7440H   LINE      CODE     ---       #65
      00FF7456H   LINE      CODE     ---       #67
      00FF7456H   LINE      CODE     ---       #68
      00FF745AH   LINE      CODE     ---       #69
      00FF745CH   LINE      CODE     ---       #70
      00FF745CH   LINE      CODE     ---       #71
      00FF745FH   LINE      CODE     ---       #72
      00FF7461H   LINE      CODE     ---       #73
      00FF7461H   LINE      CODE     ---       #74
      00FF7464H   LINE      CODE     ---       #75
      00FF7466H   LINE      CODE     ---       #76
      00FF7466H   LINE      CODE     ---       #77
      00FF7469H   LINE      CODE     ---       #78
      00FF7469H   LINE      CODE     ---       #79
      00FF7469H   LINE      CODE     ---       #81
      00FF746CH   LINE      CODE     ---       #82
      00FF747BH   LINE      CODE     ---       #84
      00FF747BH   LINE      CODE     ---       #86
      00FF747DH   LINE      CODE     ---       #87
      00FF747DH   LINE      CODE     ---       #88
      00FF7480H   LINE      CODE     ---       #89
      00FF7482H   LINE      CODE     ---       #90
      00FF7482H   LINE      CODE     ---       #91
      00FF7485H   LINE      CODE     ---       #92
      00FF7487H   LINE      CODE     ---       #93
      00FF7487H   LINE      CODE     ---       #94
      00FF748AH   LINE      CODE     ---       #95
      00FF748AH   LINE      CODE     ---       #96
      00FF748AH   LINE      CODE     ---       #99
      00FF7492H   LINE      CODE     ---       #101
      00FF749CH   LINE      CODE     ---       #103
      00FF749FH   LINE      CODE     ---       #104
      00FF74A2H   LINE      CODE     ---       #105
      00FF74A2H   LINE      CODE     ---       #109
      00FF74A2H   LINE      CODE     ---       #110
      00FF74A5H   LINE      CODE     ---       #111
      ---         BLOCKEND  ---      ---       LVL=0

      00FF8F8AH   BLOCK     CODE     ---       LVL=0
      00000DFAH   SYMBOL    EDATA    BYTE      dat
      00FF8F8AH   LINE      CODE     ---       #121
      00FF8F8EH   LINE      CODE     ---       #123
      00FF8F90H   LINE      CODE     ---       #124
      00FF8F95H   LINE      CODE     ---       #125
      00FF8F99H   LINE      CODE     ---       #126
      00FF8F9BH   LINE      CODE     ---       #127
      ---         BLOCKEND  ---      ---       LVL=0
      00000DB6H   SYMBOL    EDATA    INT       spi_n
      00000DFBH   SYMBOL    EDATA    BYTE      mode

      ---         MODULE    ---      ---       zf_tim
      00FF76E5H   PUBLIC    CODE     ---       ctimer_count_read
      00FF721EH   PUBLIC    CODE     ---       pit_timer_ms
      00FF8486H   PUBLIC    CODE     ---       ctimer_count_init
      00FF8168H   PUBLIC    CODE     ---       ctimer_count_clean
      000000D0H   SFRSYM    DATA     BYTE      PSW
      0000009DH   SFRSYM    DATA     BYTE      IRCBAND
      00000097H   SFRSYM    DATA     BYTE      AUXR2
      000000EFH   SFRSYM    DATA     BYTE      AUXINTIF
      000000FDH   SFRSYM    DATA     BYTE      S4CON
      000000ACH   SFRSYM    DATA     BYTE      S3CON
      0000009AH   SFRSYM    DATA     BYTE      S2CON
      000000B7H   SFRSYM    DATA     BYTE      IPH
      000000CDH   SFRSYM    DATA     BYTE      SPSTAT
      000000DDH   SFRSYM    DATA     BYTE      T4T3M
L251 LINKER/LOCATER V4.66.93.0                                                        03/12/2024  22:09:15  PAGE 44


      000000C1H   SFRSYM    DATA     BYTE      WDT_CONTR
      00000088H.6 SFRSYM    DATA     BIT       TR1
      00000088H.4 SFRSYM    DATA     BIT       TR0
      000000D3H   SFRSYM    DATA     BYTE      T4L
      000000D5H   SFRSYM    DATA     BYTE      T3L
      000000D7H   SFRSYM    DATA     BYTE      T2L
      0000008BH   SFRSYM    DATA     BYTE      TL1
      0000008AH   SFRSYM    DATA     BYTE      TL0
      000000D2H   SFRSYM    DATA     BYTE      T4H
      000000D4H   SFRSYM    DATA     BYTE      T3H
      000000D6H   SFRSYM    DATA     BYTE      T2H
      0000008DH   SFRSYM    DATA     BYTE      TH1
      0000008CH   SFRSYM    DATA     BYTE      TH0
      000000DFH   SFRSYM    DATA     BYTE      IP3
      000000F4H   SFRSYM    DATA     BYTE      USBCON
      000000B5H   SFRSYM    DATA     BYTE      IP2
      000000FFH   SFRSYM    DATA     BYTE      RSTCFG
      000000A8H.3 SFRSYM    DATA     BIT       ET1
      000000A8H.1 SFRSYM    DATA     BIT       ET0
      000000F9H   SFRSYM    DATA     BYTE      LINICR
      0000008EH   SFRSYM    DATA     BYTE      AUXR
      000000AFH   SFRSYM    DATA     BYTE      IE2
      00000088H   SFRSYM    DATA     BYTE      TCON
      00000089H   SFRSYM    DATA     BYTE      TMOD
      00000098H   SFRSYM    DATA     BYTE      SCON
      000000F1H   SFRSYM    DATA     BYTE      CANICR
      00000087H   SFRSYM    DATA     BYTE      PCON
      000000BCH   SFRSYM    DATA     BYTE      ADC_CONTR
      000000E7H   SFRSYM    DATA     BYTE      CMPCR2
      000000E6H   SFRSYM    DATA     BYTE      CMPCR1
      000000B8H   SFRSYM    DATA     BYTE      IP
      0000008FH   SFRSYM    DATA     BYTE      INTCLKO
      000000EEH   SFRSYM    DATA     BYTE      IP3H
      000000B6H   SFRSYM    DATA     BYTE      IP2H
      000000A8H   SFRSYM    DATA     BYTE      IE
      000000BBH   SFRSYM    DATA     BYTE      P_SW3
      000000BAH   SFRSYM    DATA     BYTE      P_SW2
      000000A2H   SFRSYM    DATA     BYTE      P_SW1
      000000CEH   SFRSYM    DATA     BYTE      SPCTL
      000000F8H   SFRSYM    DATA     BYTE      P7
      000000E8H   SFRSYM    DATA     BYTE      P6
      000000C8H   SFRSYM    DATA     BYTE      P5
      000000C0H   SFRSYM    DATA     BYTE      P4
      000000B0H   SFRSYM    DATA     BYTE      P3
      000000A0H   SFRSYM    DATA     BYTE      P2
      00000090H   SFRSYM    DATA     BYTE      P1
      00000080H   SFRSYM    DATA     BYTE      P0

      00FF8486H   BLOCK     CODE     ---       LVL=0
      00000DB8H   SYMBOL    EDATA    INT       tim_n
      00FF8486H   LINE      CODE     ---       #39
      00FF848AH   LINE      CODE     ---       #42
      00FF849EH   LINE      CODE     ---       #44
      00FF849EH   LINE      CODE     ---       #46
      00FF84A1H   LINE      CODE     ---       #47
      00FF84A4H   LINE      CODE     ---       #48
      00FF84A7H   LINE      CODE     ---       #49
      00FF84AAH   LINE      CODE     ---       #50
      00FF84ACH   LINE      CODE     ---       #53
      00FF84ACH   LINE      CODE     ---       #55
      00FF84AFH   LINE      CODE     ---       #56
      00FF84B2H   LINE      CODE     ---       #57
      00FF84B5H   LINE      CODE     ---       #58
      00FF84B8H   LINE      CODE     ---       #59
      00FF84BAH   LINE      CODE     ---       #62
L251 LINKER/LOCATER V4.66.93.0                                                        03/12/2024  22:09:15  PAGE 45


      00FF84BAH   LINE      CODE     ---       #64
      00FF84BDH   LINE      CODE     ---       #65
      00FF84C0H   LINE      CODE     ---       #66
      00FF84C3H   LINE      CODE     ---       #67
      00FF84C5H   LINE      CODE     ---       #70
      00FF84C5H   LINE      CODE     ---       #72
      00FF84C8H   LINE      CODE     ---       #73
      00FF84CBH   LINE      CODE     ---       #74
      00FF84CEH   LINE      CODE     ---       #75
      00FF84D0H   LINE      CODE     ---       #78
      00FF84D0H   LINE      CODE     ---       #80
      00FF84D3H   LINE      CODE     ---       #81
      00FF84D6H   LINE      CODE     ---       #82
      00FF84D9H   LINE      CODE     ---       #83
      00FF84D9H   LINE      CODE     ---       #86
      00FF84D9H   LINE      CODE     ---       #87
      ---         BLOCKEND  ---      ---       LVL=0

      00FF76E5H   BLOCK     CODE     ---       LVL=0
      00000D41H   SYMBOL    EDATA    INT       tim_n
      00FF76E9H   BLOCK     CODE     NEAR LAB  LVL=1
      00000D43H   SYMBOL    EDATA    WORD      dat
      ---         BLOCKEND  ---      ---       LVL=1
      00FF76E5H   LINE      CODE     ---       #95
      00FF76E9H   LINE      CODE     ---       #96
      00FF76E9H   LINE      CODE     ---       #97
      00FF76EFH   LINE      CODE     ---       #99
      00FF770AH   LINE      CODE     ---       #101
      00FF770AH   LINE      CODE     ---       #103
      00FF7716H   LINE      CODE     ---       #104
      00FF7724H   LINE      CODE     ---       #105
      00FF7726H   LINE      CODE     ---       #107
      00FF7726H   LINE      CODE     ---       #109
      00FF7732H   LINE      CODE     ---       #110
      00FF7740H   LINE      CODE     ---       #111
      00FF7742H   LINE      CODE     ---       #113
      00FF7742H   LINE      CODE     ---       #115
      00FF774EH   LINE      CODE     ---       #116
      00FF775CH   LINE      CODE     ---       #117
      00FF775EH   LINE      CODE     ---       #119
      00FF775EH   LINE      CODE     ---       #121
      00FF776AH   LINE      CODE     ---       #122
      00FF7778H   LINE      CODE     ---       #123
      00FF777AH   LINE      CODE     ---       #125
      00FF777AH   LINE      CODE     ---       #127
      00FF7786H   LINE      CODE     ---       #128
      00FF7794H   LINE      CODE     ---       #129
      00FF7794H   LINE      CODE     ---       #132
      00FF7794H   LINE      CODE     ---       #133
      00FF7798H   LINE      CODE     ---       #134
      ---         BLOCKEND  ---      ---       LVL=0

      00FF8168H   BLOCK     CODE     ---       LVL=0
      00000DBAH   SYMBOL    EDATA    INT       tim_n
      00FF8168H   LINE      CODE     ---       #143
      00FF816CH   LINE      CODE     ---       #145
      00FF8180H   LINE      CODE     ---       #147
      00FF8180H   LINE      CODE     ---       #149
      00FF8183H   LINE      CODE     ---       #150
      00FF8186H   LINE      CODE     ---       #151
      00FF8189H   LINE      CODE     ---       #152
      00FF818CH   LINE      CODE     ---       #153
      00FF818EH   LINE      CODE     ---       #155
      00FF818EH   LINE      CODE     ---       #157
      00FF8191H   LINE      CODE     ---       #158
L251 LINKER/LOCATER V4.66.93.0                                                        03/12/2024  22:09:15  PAGE 46


      00FF8194H   LINE      CODE     ---       #159
      00FF8197H   LINE      CODE     ---       #160
      00FF819AH   LINE      CODE     ---       #161
      00FF819CH   LINE      CODE     ---       #163
      00FF819CH   LINE      CODE     ---       #165
      00FF819FH   LINE      CODE     ---       #166
      00FF81A2H   LINE      CODE     ---       #167
      00FF81A5H   LINE      CODE     ---       #168
      00FF81A8H   LINE      CODE     ---       #169
      00FF81AAH   LINE      CODE     ---       #171
      00FF81AAH   LINE      CODE     ---       #173
      00FF81ADH   LINE      CODE     ---       #174
      00FF81B0H   LINE      CODE     ---       #175
      00FF81B3H   LINE      CODE     ---       #176
      00FF81B6H   LINE      CODE     ---       #177
      00FF81B8H   LINE      CODE     ---       #179
      00FF81B8H   LINE      CODE     ---       #181
      00FF81BBH   LINE      CODE     ---       #182
      00FF81BEH   LINE      CODE     ---       #183
      00FF81C1H   LINE      CODE     ---       #184
      00FF81C4H   LINE      CODE     ---       #185
      00FF81C4H   LINE      CODE     ---       #187
      00FF81C4H   LINE      CODE     ---       #188
      ---         BLOCKEND  ---      ---       LVL=0

      00FF721EH   BLOCK     CODE     ---       LVL=0
      00000C73H   SYMBOL    EDATA    INT       tim_n
      00000C75H   SYMBOL    EDATA    WORD      time_ms
      00FF7226H   BLOCK     CODE     NEAR LAB  LVL=1
      00000C77H   SYMBOL    EDATA    WORD      temp
      ---         BLOCKEND  ---      ---       LVL=1
      00FF721EH   LINE      CODE     ---       #198
      00FF7226H   LINE      CODE     ---       #199
      00FF7226H   LINE      CODE     ---       #201
      00FF7249H   LINE      CODE     ---       #203
      00FF7253H   LINE      CODE     ---       #205
      00FF7257H   LINE      CODE     ---       #206
      00FF725DH   LINE      CODE     ---       #207
      00FF7267H   LINE      CODE     ---       #208
      00FF726AH   LINE      CODE     ---       #209
      00FF726DH   LINE      CODE     ---       #210
      00FF7270H   LINE      CODE     ---       #211
      00FF727CH   LINE      CODE     ---       #213
      00FF7280H   LINE      CODE     ---       #214
      00FF7286H   LINE      CODE     ---       #215
      00FF7290H   LINE      CODE     ---       #216
      00FF7293H   LINE      CODE     ---       #217
      00FF7296H   LINE      CODE     ---       #218
      00FF7298H   LINE      CODE     ---       #219
      00FF72A4H   LINE      CODE     ---       #221
      00FF72AAH   LINE      CODE     ---       #222
      00FF72B4H   LINE      CODE     ---       #223
      00FF72B7H   LINE      CODE     ---       #224
      00FF72BAH   LINE      CODE     ---       #225
      00FF72BCH   LINE      CODE     ---       #226
      00FF72C8H   LINE      CODE     ---       #228
      00FF72CEH   LINE      CODE     ---       #229
      00FF72D8H   LINE      CODE     ---       #230
      00FF72DBH   LINE      CODE     ---       #231
      00FF72DEH   LINE      CODE     ---       #232
      00FF72E0H   LINE      CODE     ---       #233
      00FF72ECH   LINE      CODE     ---       #235
      00FF72F2H   LINE      CODE     ---       #236
      00FF72FCH   LINE      CODE     ---       #237
      00FF72FFH   LINE      CODE     ---       #238
L251 LINKER/LOCATER V4.66.93.0                                                        03/12/2024  22:09:15  PAGE 47


      00FF7302H   LINE      CODE     ---       #239
      ---         BLOCKEND  ---      ---       LVL=0

      ---         MODULE    ---      ---       zf_uart
      00FF7CD3H   PUBLIC    CODE     ---       uart_putchar
      00FF57B0H   PUBLIC    CODE     ---       uart_init
      00000D03H   PUBLIC    EDATA    ---       busy
      0000090FH   PUBLIC    EDATA    BYTE      ?uart_init?BYTE
      00000A86H   PUBLIC    EDATA    BYTE      ?uart_putbuff?BYTE
      000000D0H   SFRSYM    DATA     BYTE      PSW
      0000009DH   SFRSYM    DATA     BYTE      IRCBAND
      00000097H   SFRSYM    DATA     BYTE      AUXR2
      000000EFH   SFRSYM    DATA     BYTE      AUXINTIF
      000000FDH   SFRSYM    DATA     BYTE      S4CON
      000000ACH   SFRSYM    DATA     BYTE      S3CON
      0000009AH   SFRSYM    DATA     BYTE      S2CON
      000000FEH   SFRSYM    DATA     BYTE      S4BUF
      000000ADH   SFRSYM    DATA     BYTE      S3BUF
      0000009BH   SFRSYM    DATA     BYTE      S2BUF
      000000B7H   SFRSYM    DATA     BYTE      IPH
      000000CDH   SFRSYM    DATA     BYTE      SPSTAT
      000000DDH   SFRSYM    DATA     BYTE      T4T3M
      000000C1H   SFRSYM    DATA     BYTE      WDT_CONTR
      00000088H.6 SFRSYM    DATA     BIT       TR1
      000000D3H   SFRSYM    DATA     BYTE      T4L
      000000D5H   SFRSYM    DATA     BYTE      T3L
      000000D7H   SFRSYM    DATA     BYTE      T2L
      0000008BH   SFRSYM    DATA     BYTE      TL1
      000000D2H   SFRSYM    DATA     BYTE      T4H
      000000D4H   SFRSYM    DATA     BYTE      T3H
      000000D6H   SFRSYM    DATA     BYTE      T2H
      0000008DH   SFRSYM    DATA     BYTE      TH1
      000000DFH   SFRSYM    DATA     BYTE      IP3
      000000F4H   SFRSYM    DATA     BYTE      USBCON
      000000B5H   SFRSYM    DATA     BYTE      IP2
      000000FFH   SFRSYM    DATA     BYTE      RSTCFG
      000000F9H   SFRSYM    DATA     BYTE      LINICR
      0000008EH   SFRSYM    DATA     BYTE      AUXR
      000000AFH   SFRSYM    DATA     BYTE      IE2
      00000088H   SFRSYM    DATA     BYTE      TCON
      00000089H   SFRSYM    DATA     BYTE      TMOD
      00000098H   SFRSYM    DATA     BYTE      SCON
      000000F1H   SFRSYM    DATA     BYTE      CANICR
      00000087H   SFRSYM    DATA     BYTE      PCON
      00000099H   SFRSYM    DATA     BYTE      SBUF
      000000BCH   SFRSYM    DATA     BYTE      ADC_CONTR
      000000E7H   SFRSYM    DATA     BYTE      CMPCR2
      000000E6H   SFRSYM    DATA     BYTE      CMPCR1
      000000B8H   SFRSYM    DATA     BYTE      IP
      000000A8H.4 SFRSYM    DATA     BIT       ES
      0000008FH   SFRSYM    DATA     BYTE      INTCLKO
      000000EEH   SFRSYM    DATA     BYTE      IP3H
      000000B6H   SFRSYM    DATA     BYTE      IP2H
      000000A8H   SFRSYM    DATA     BYTE      IE
      000000BBH   SFRSYM    DATA     BYTE      P_SW3
      000000BAH   SFRSYM    DATA     BYTE      P_SW2
      000000A2H   SFRSYM    DATA     BYTE      P_SW1
      000000CEH   SFRSYM    DATA     BYTE      SPCTL
      000000F8H   SFRSYM    DATA     BYTE      P7
      000000E8H   SFRSYM    DATA     BYTE      P6
      000000C8H   SFRSYM    DATA     BYTE      P5
      000000C0H   SFRSYM    DATA     BYTE      P4
      000000C9H   SFRSYM    DATA     BYTE      P5M1
      000000B0H   SFRSYM    DATA     BYTE      P3
      000000CAH   SFRSYM    DATA     BYTE      P5M0
L251 LINKER/LOCATER V4.66.93.0                                                        03/12/2024  22:09:15  PAGE 48


      000000A0H   SFRSYM    DATA     BYTE      P2
      00000090H   SFRSYM    DATA     BYTE      P1
      00000080H   SFRSYM    DATA     BYTE      P0

      00FF57B0H   BLOCK     CODE     ---       LVL=0
      0000090FH   SYMBOL    EDATA    INT       uart_n
      00000911H   SYMBOL    EDATA    INT       uart_rx_pin
      00000913H   SYMBOL    EDATA    INT       uart_tx_pin
      00000915H   SYMBOL    EDATA    DWORD     baud
      00000919H   SYMBOL    EDATA    INT       tim_n
      00FF57C0H   BLOCK     CODE     NEAR LAB  LVL=1
      0000091BH   SYMBOL    EDATA    WORD      brt
      ---         BLOCKEND  ---      ---       LVL=1
      00FF57B0H   LINE      CODE     ---       #42
      00FF57C0H   LINE      CODE     ---       #43
      00FF57C0H   LINE      CODE     ---       #46
      00FF57E7H   LINE      CODE     ---       #49
      00FF5809H   LINE      CODE     ---       #51
      00FF5809H   LINE      CODE     ---       #53
      00FF5815H   LINE      CODE     ---       #55
      00FF5818H   LINE      CODE     ---       #56
      00FF581CH   LINE      CODE     ---       #57
      00FF5822H   LINE      CODE     ---       #58
      00FF582CH   LINE      CODE     ---       #59
      00FF582FH   LINE      CODE     ---       #60
      00FF5832H   LINE      CODE     ---       #61
      00FF5837H   LINE      CODE     ---       #62
      00FF5839H   LINE      CODE     ---       #63
      00FF5845H   LINE      CODE     ---       #65
      00FF5848H   LINE      CODE     ---       #66
      00FF584EH   LINE      CODE     ---       #67
      00FF5858H   LINE      CODE     ---       #68
      00FF585BH   LINE      CODE     ---       #69
      00FF585BH   LINE      CODE     ---       #70
      00FF585EH   LINE      CODE     ---       #71
      00FF5874H   LINE      CODE     ---       #73
      00FF5878H   LINE      CODE     ---       #74
      00FF587AH   LINE      CODE     ---       #75
      00FF5892H   LINE      CODE     ---       #77
      00FF5895H   LINE      CODE     ---       #78
      00FF5897H   LINE      CODE     ---       #79
      00FF58AFH   LINE      CODE     ---       #81
      00FF58B2H   LINE      CODE     ---       #82
      00FF58B4H   LINE      CODE     ---       #83
      00FF58CCH   LINE      CODE     ---       #85
      00FF58CFH   LINE      CODE     ---       #86
      00FF58CFH   LINE      CODE     ---       #87
      00FF58D4H   LINE      CODE     ---       #88
      00FF58D7H   LINE      CODE     ---       #89
      00FF58DAH   LINE      CODE     ---       #92
      00FF58DAH   LINE      CODE     ---       #94
      00FF58E6H   LINE      CODE     ---       #96
      00FF58E9H   LINE      CODE     ---       #97
      00FF58EFH   LINE      CODE     ---       #98
      00FF58F9H   LINE      CODE     ---       #99
      00FF58FCH   LINE      CODE     ---       #100
      00FF58FCH   LINE      CODE     ---       #102
      00FF58FFH   LINE      CODE     ---       #103
      00FF5917H   LINE      CODE     ---       #105
      00FF591BH   LINE      CODE     ---       #106
      00FF591DH   LINE      CODE     ---       #107
      00FF5935H   LINE      CODE     ---       #109
      00FF5938H   LINE      CODE     ---       #110
      00FF5938H   LINE      CODE     ---       #112
      00FF593BH   LINE      CODE     ---       #113
L251 LINKER/LOCATER V4.66.93.0                                                        03/12/2024  22:09:15  PAGE 49


      00FF5940H   LINE      CODE     ---       #114
      00FF5943H   LINE      CODE     ---       #117
      00FF5943H   LINE      CODE     ---       #119
      00FF594FH   LINE      CODE     ---       #121
      00FF5952H   LINE      CODE     ---       #122
      00FF5958H   LINE      CODE     ---       #123
      00FF5962H   LINE      CODE     ---       #124
      00FF5965H   LINE      CODE     ---       #125
      00FF5967H   LINE      CODE     ---       #126
      00FF5973H   LINE      CODE     ---       #128
      00FF5976H   LINE      CODE     ---       #129
      00FF597CH   LINE      CODE     ---       #130
      00FF5986H   LINE      CODE     ---       #131
      00FF5989H   LINE      CODE     ---       #132
      00FF5989H   LINE      CODE     ---       #134
      00FF598CH   LINE      CODE     ---       #135
      00FF59A4H   LINE      CODE     ---       #137
      00FF59A8H   LINE      CODE     ---       #138
      00FF59AAH   LINE      CODE     ---       #139
      00FF59C2H   LINE      CODE     ---       #141
      00FF59C5H   LINE      CODE     ---       #142
      00FF59C5H   LINE      CODE     ---       #144
      00FF59C8H   LINE      CODE     ---       #145
      00FF59CDH   LINE      CODE     ---       #146
      00FF59D0H   LINE      CODE     ---       #149
      00FF59D0H   LINE      CODE     ---       #151
      00FF59DCH   LINE      CODE     ---       #153
      00FF59DFH   LINE      CODE     ---       #154
      00FF59E5H   LINE      CODE     ---       #155
      00FF59EFH   LINE      CODE     ---       #156
      00FF59F2H   LINE      CODE     ---       #157
      00FF59F4H   LINE      CODE     ---       #158
      00FF5A00H   LINE      CODE     ---       #160
      00FF5A03H   LINE      CODE     ---       #161
      00FF5A09H   LINE      CODE     ---       #162
      00FF5A13H   LINE      CODE     ---       #163
      00FF5A16H   LINE      CODE     ---       #164
      00FF5A16H   LINE      CODE     ---       #166
      00FF5A19H   LINE      CODE     ---       #167
      00FF5A31H   LINE      CODE     ---       #169
      00FF5A35H   LINE      CODE     ---       #170
      00FF5A37H   LINE      CODE     ---       #171
      00FF5A4FH   LINE      CODE     ---       #173
      00FF5A52H   LINE      CODE     ---       #174
      00FF5A56H   LINE      CODE     ---       #175
      00FF5A59H   LINE      CODE     ---       #176
      00FF5A59H   LINE      CODE     ---       #177
      00FF5A5CH   LINE      CODE     ---       #178
      00FF5A61H   LINE      CODE     ---       #179
      00FF5A61H   LINE      CODE     ---       #182
      00FF5A61H   LINE      CODE     ---       #184
      ---         BLOCKEND  ---      ---       LVL=0

      00FF7CD3H   BLOCK     CODE     ---       LVL=0
      00000D7CH   SYMBOL    EDATA    INT       uart_n
      00000D7EH   SYMBOL    EDATA    BYTE      dat
      00FF7CD3H   LINE      CODE     ---       #193
      00FF7CDBH   LINE      CODE     ---       #195
      00FF7CEDH   LINE      CODE     ---       #197
      00FF7CEDH   LINE      CODE     ---       #198
      00FF7CF6H   LINE      CODE     ---       #199
      00FF7CFCH   LINE      CODE     ---       #200
      00FF7D02H   LINE      CODE     ---       #201
      00FF7D04H   LINE      CODE     ---       #202
      00FF7D04H   LINE      CODE     ---       #203
L251 LINKER/LOCATER V4.66.93.0                                                        03/12/2024  22:09:15  PAGE 50


      00FF7D0DH   LINE      CODE     ---       #204
      00FF7D13H   LINE      CODE     ---       #205
      00FF7D19H   LINE      CODE     ---       #206
      00FF7D1BH   LINE      CODE     ---       #207
      00FF7D1BH   LINE      CODE     ---       #208
      00FF7D24H   LINE      CODE     ---       #209
      00FF7D2AH   LINE      CODE     ---       #210
      00FF7D30H   LINE      CODE     ---       #211
      00FF7D32H   LINE      CODE     ---       #212
      00FF7D32H   LINE      CODE     ---       #213
      00FF7D3BH   LINE      CODE     ---       #214
      00FF7D41H   LINE      CODE     ---       #215
      00FF7D47H   LINE      CODE     ---       #216
      00FF7D47H   LINE      CODE     ---       #217
      00FF7D47H   LINE      CODE     ---       #218
      ---         BLOCKEND  ---      ---       LVL=0
      00000A86H   SYMBOL    EDATA    INT       uart_n
      00000A88H   SYMBOL    EDATA    ---       p
      00000A8CH   SYMBOL    EDATA    DWORD     len
      00000C79H   SYMBOL    EDATA    INT       uart_n
      00000C7BH   SYMBOL    EDATA    ---       str

      ---         MODULE    ---      ---       zf_fifo
      00FF541EH   PUBLIC    CODE     ---       fifo_write_buffer
      00000879H   PUBLIC    EDATA    BYTE      ?fifo_write_buffer?BYTE
      0000096EH   PUBLIC    EDATA    BYTE      ?fifo_read_element?BYTE
      000007E1H   PUBLIC    EDATA    BYTE      ?fifo_read_buffer?BYTE
      000007F9H   PUBLIC    EDATA    BYTE      ?fifo_read_tail_buffer?BYTE
      000008C1H   PUBLIC    EDATA    BYTE      ?fifo_init?BYTE
      000000D0H   SFRSYM    DATA     BYTE      PSW
      0000009DH   SFRSYM    DATA     BYTE      IRCBAND
      00000097H   SFRSYM    DATA     BYTE      AUXR2
      000000EFH   SFRSYM    DATA     BYTE      AUXINTIF
      000000FDH   SFRSYM    DATA     BYTE      S4CON
      000000ACH   SFRSYM    DATA     BYTE      S3CON
      0000009AH   SFRSYM    DATA     BYTE      S2CON
      000000B7H   SFRSYM    DATA     BYTE      IPH
      000000CDH   SFRSYM    DATA     BYTE      SPSTAT
      000000DDH   SFRSYM    DATA     BYTE      T4T3M
      000000C1H   SFRSYM    DATA     BYTE      WDT_CONTR
      000000DFH   SFRSYM    DATA     BYTE      IP3
      000000F4H   SFRSYM    DATA     BYTE      USBCON
      000000B5H   SFRSYM    DATA     BYTE      IP2
      000000FFH   SFRSYM    DATA     BYTE      RSTCFG
      000000F9H   SFRSYM    DATA     BYTE      LINICR
      0000008EH   SFRSYM    DATA     BYTE      AUXR
      000000AFH   SFRSYM    DATA     BYTE      IE2
      00000088H   SFRSYM    DATA     BYTE      TCON
      00000098H   SFRSYM    DATA     BYTE      SCON
      000000F1H   SFRSYM    DATA     BYTE      CANICR
      00000087H   SFRSYM    DATA     BYTE      PCON
      000000BCH   SFRSYM    DATA     BYTE      ADC_CONTR
      000000E7H   SFRSYM    DATA     BYTE      CMPCR2
      000000E6H   SFRSYM    DATA     BYTE      CMPCR1
      000000B8H   SFRSYM    DATA     BYTE      IP
      0000008FH   SFRSYM    DATA     BYTE      INTCLKO
      000000EEH   SFRSYM    DATA     BYTE      IP3H
      000000B6H   SFRSYM    DATA     BYTE      IP2H
      000000A8H   SFRSYM    DATA     BYTE      IE
      000000BBH   SFRSYM    DATA     BYTE      P_SW3
      000000BAH   SFRSYM    DATA     BYTE      P_SW2
      000000A2H   SFRSYM    DATA     BYTE      P_SW1
      000000CEH   SFRSYM    DATA     BYTE      SPCTL
      000000F8H   SFRSYM    DATA     BYTE      P7
      000000E8H   SFRSYM    DATA     BYTE      P6
L251 LINKER/LOCATER V4.66.93.0                                                        03/12/2024  22:09:15  PAGE 51


      000000C8H   SFRSYM    DATA     BYTE      P5
      000000C0H   SFRSYM    DATA     BYTE      P4
      000000B0H   SFRSYM    DATA     BYTE      P3
      000000A0H   SFRSYM    DATA     BYTE      P2
      00000090H   SFRSYM    DATA     BYTE      P1
      00000080H   SFRSYM    DATA     BYTE      P0
      00FF7DBBH   SYMBOL    CODE     ---       fifo_head_offset

      00FF7DBBH   BLOCK     CODE     ---       LVL=0
      00000BCCH   SYMBOL    EDATA    ---       fifo
      00000BD0H   SYMBOL    EDATA    DWORD     offset
      00FF7DBBH   LINE      CODE     ---       #42
      00FF7DC3H   LINE      CODE     ---       #44
      00FF7DDFH   LINE      CODE     ---       #46
      00FF7DE1H   LINE      CODE     ---       #48
      00FF7E08H   LINE      CODE     ---       #49
      00FF7E2AH   LINE      CODE     ---       #50
      ---         BLOCKEND  ---      ---       LVL=0
      00000BD4H   SYMBOL    EDATA    ---       fifo
      00000BD8H   SYMBOL    EDATA    DWORD     offset
      00000C7FH   SYMBOL    EDATA    ---       fifo
      00000C83H   SYMBOL    EDATA    INT       return_state
      00000D45H   SYMBOL    EDATA    ---       fifo
      00000A90H   SYMBOL    EDATA    ---       fifo
      00000A94H   SYMBOL    EDATA    DWORD     dat
      00000A98H   SYMBOL    EDATA    INT       return_state

      00FF541EH   BLOCK     CODE     ---       LVL=0
      00000879H   SYMBOL    EDATA    ---       fifo
      0000087DH   SYMBOL    EDATA    ---       dat
      00000881H   SYMBOL    EDATA    DWORD     length
      00FF5426H   BLOCK     CODE     NEAR LAB  LVL=1
      00000885H   SYMBOL    EDATA    INT       return_state
      00000887H   SYMBOL    EDATA    DWORD     temp_length
      ---         BLOCKEND  ---      ---       LVL=1
      00FF541EH   LINE      CODE     ---       #168
      00FF5426H   LINE      CODE     ---       #169
      00FF5426H   LINE      CODE     ---       #171
      00FF542CH   LINE      CODE     ---       #172
      00FF5432H   LINE      CODE     ---       #174
      00FF5432H   LINE      CODE     ---       #176
      00FF543AH   LINE      CODE     ---       #178
      00FF5442H   LINE      CODE     ---       #179
      00FF5445H   LINE      CODE     ---       #180
      00FF5445H   LINE      CODE     ---       #181
      00FF545AH   LINE      CODE     ---       #183
      00FF5462H   LINE      CODE     ---       #184
      00FF5465H   LINE      CODE     ---       #185
      00FF5465H   LINE      CODE     ---       #186
      00FF5473H   LINE      CODE     ---       #188
      00FF548DH   LINE      CODE     ---       #190
      00FF54B1H   LINE      CODE     ---       #192
      00FF54C0H   LINE      CODE     ---       #194
      00FF54DEH   LINE      CODE     ---       #196
      00FF54DEH   LINE      CODE     ---       #198
      00FF550DH   LINE      CODE     ---       #201
      00FF5518H   LINE      CODE     ---       #202
      00FF5555H   LINE      CODE     ---       #206
      00FF5566H   LINE      CODE     ---       #207
      00FF5569H   LINE      CODE     ---       #208
      00FF5569H   LINE      CODE     ---       #210
      00FF559CH   LINE      CODE     ---       #213
      00FF55A7H   LINE      CODE     ---       #214
      00FF55EAH   LINE      CODE     ---       #218
      00FF55FBH   LINE      CODE     ---       #219
L251 LINKER/LOCATER V4.66.93.0                                                        03/12/2024  22:09:15  PAGE 52


      00FF55FEH   LINE      CODE     ---       #220
      00FF55FEH   LINE      CODE     ---       #222
      00FF5635H   LINE      CODE     ---       #225
      00FF5640H   LINE      CODE     ---       #226
      00FF5689H   LINE      CODE     ---       #230
      00FF569AH   LINE      CODE     ---       #231
      00FF569AH   LINE      CODE     ---       #232
      00FF569AH   LINE      CODE     ---       #233
      00FF569DH   LINE      CODE     ---       #236
      00FF56B8H   LINE      CODE     ---       #238
      00FF56B8H   LINE      CODE     ---       #240
      00FF56E7H   LINE      CODE     ---       #243
      00FF56F2H   LINE      CODE     ---       #244
      00FF56F5H   LINE      CODE     ---       #245
      00FF56F5H   LINE      CODE     ---       #247
      00FF5728H   LINE      CODE     ---       #250
      00FF5733H   LINE      CODE     ---       #251
      00FF5735H   LINE      CODE     ---       #252
      00FF5735H   LINE      CODE     ---       #254
      00FF576CH   LINE      CODE     ---       #257
      00FF5777H   LINE      CODE     ---       #258
      00FF5777H   LINE      CODE     ---       #259
      00FF5777H   LINE      CODE     ---       #260
      00FF5777H   LINE      CODE     ---       #262
      00FF5793H   LINE      CODE     ---       #263
      00FF5795H   LINE      CODE     ---       #266
      00FF579DH   LINE      CODE     ---       #267
      00FF579DH   LINE      CODE     ---       #268
      00FF57ABH   LINE      CODE     ---       #269
      00FF57ABH   LINE      CODE     ---       #271
      00FF57AFH   LINE      CODE     ---       #272
      ---         BLOCKEND  ---      ---       LVL=0
      0000096EH   SYMBOL    EDATA    ---       fifo
      00000972H   SYMBOL    EDATA    ---       dat
      00000976H   SYMBOL    EDATA    INT       flag
      00000978H   SYMBOL    EDATA    INT       return_state
      000007E1H   SYMBOL    EDATA    ---       fifo
      000007E5H   SYMBOL    EDATA    ---       dat
      000007E9H   SYMBOL    EDATA    ---       length
      000007EDH   SYMBOL    EDATA    INT       flag
      000007EFH   SYMBOL    EDATA    INT       return_state
      000007F1H   SYMBOL    EDATA    DWORD     temp_length
      000007F5H   SYMBOL    EDATA    DWORD     fifo_data_length
      000007F9H   SYMBOL    EDATA    ---       fifo
      000007FDH   SYMBOL    EDATA    ---       dat
      00000801H   SYMBOL    EDATA    ---       length
      00000805H   SYMBOL    EDATA    INT       flag
      00000807H   SYMBOL    EDATA    INT       return_state
      00000809H   SYMBOL    EDATA    DWORD     temp_length
      0000080DH   SYMBOL    EDATA    DWORD     fifo_data_length
      000008C1H   SYMBOL    EDATA    ---       fifo
      000008C5H   SYMBOL    EDATA    INT       type
      000008C7H   SYMBOL    EDATA    ---       buffer_addr
      000008CBH   SYMBOL    EDATA    DWORD     len
      000008CFH   SYMBOL    EDATA    INT       return_state

      ---         MODULE    ---      ---       SEEKFREE_18TFT
      00FF8672H   PUBLIC    CODE     ---       lcd_writeIndex_simspi
      00FF86BEH   PUBLIC    CODE     ---       lcd_writeData_simspi
      00FF8ED4H   PUBLIC    CODE     ---       lcd_writeIndex
      00FF8EE9H   PUBLIC    CODE     ---       lcd_writeData
      00FF83DCH   PUBLIC    CODE     ---       lcd_writeData_16bit_simspi
      00FF8041H   PUBLIC    CODE     ---       lcd_set_region_simspi
      00FF80A5H   PUBLIC    CODE     ---       lcd_set_region
      00FF8B88H   PUBLIC    CODE     ---       lcd_writedata_16bit
L251 LINKER/LOCATER V4.66.93.0                                                        03/12/2024  22:09:15  PAGE 53


      000004F7H   PUBLIC    EDATA    BYTE      ?lcd_showfloat_simspi?BYTE
      00000527H   PUBLIC    EDATA    BYTE      ?lcd_showfloat?BYTE
      000000D0H   SFRSYM    DATA     BYTE      PSW
      0000009DH   SFRSYM    DATA     BYTE      IRCBAND
      00000097H   SFRSYM    DATA     BYTE      AUXR2
      000000EFH   SFRSYM    DATA     BYTE      AUXINTIF
      000000FDH   SFRSYM    DATA     BYTE      S4CON
      000000ACH   SFRSYM    DATA     BYTE      S3CON
      0000009AH   SFRSYM    DATA     BYTE      S2CON
      000000B7H   SFRSYM    DATA     BYTE      IPH
      000000CDH   SFRSYM    DATA     BYTE      SPSTAT
      000000DDH   SFRSYM    DATA     BYTE      T4T3M
      000000C1H   SFRSYM    DATA     BYTE      WDT_CONTR
      000000DFH   SFRSYM    DATA     BYTE      IP3
      000000F4H   SFRSYM    DATA     BYTE      USBCON
      000000B5H   SFRSYM    DATA     BYTE      IP2
      000000FFH   SFRSYM    DATA     BYTE      RSTCFG
      000000F9H   SFRSYM    DATA     BYTE      LINICR
      0000008EH   SFRSYM    DATA     BYTE      AUXR
      000000AFH   SFRSYM    DATA     BYTE      IE2
      000000A0H.5 SFRSYM    DATA     BIT       P25
      00000088H   SFRSYM    DATA     BYTE      TCON
      000000A0H.3 SFRSYM    DATA     BIT       P23
      00000098H   SFRSYM    DATA     BYTE      SCON
      000000A0H.2 SFRSYM    DATA     BIT       P22
      000000A0H.1 SFRSYM    DATA     BIT       P21
      000000A0H.0 SFRSYM    DATA     BIT       P20
      000000F1H   SFRSYM    DATA     BYTE      CANICR
      00000087H   SFRSYM    DATA     BYTE      PCON
      000000BCH   SFRSYM    DATA     BYTE      ADC_CONTR
      000000E7H   SFRSYM    DATA     BYTE      CMPCR2
      000000E6H   SFRSYM    DATA     BYTE      CMPCR1
      000000B8H   SFRSYM    DATA     BYTE      IP
      0000008FH   SFRSYM    DATA     BYTE      INTCLKO
      000000EEH   SFRSYM    DATA     BYTE      IP3H
      000000B6H   SFRSYM    DATA     BYTE      IP2H
      000000A8H   SFRSYM    DATA     BYTE      IE
      000000BBH   SFRSYM    DATA     BYTE      P_SW3
      000000BAH   SFRSYM    DATA     BYTE      P_SW2
      000000A2H   SFRSYM    DATA     BYTE      P_SW1
      000000CEH   SFRSYM    DATA     BYTE      SPCTL
      000000F8H   SFRSYM    DATA     BYTE      P7
      000000E8H   SFRSYM    DATA     BYTE      P6
      000000C8H   SFRSYM    DATA     BYTE      P5
      000000C0H   SFRSYM    DATA     BYTE      P4
      000000B0H   SFRSYM    DATA     BYTE      P3
      000000A0H   SFRSYM    DATA     BYTE      P2
      00000090H   SFRSYM    DATA     BYTE      P1
      00000080H   SFRSYM    DATA     BYTE      P0

      00FF8672H   BLOCK     CODE     ---       LVL=0
      00000DBCH   SYMBOL    EDATA    BYTE      dat
      00FF8676H   BLOCK     CODE     NEAR LAB  LVL=1
      00000DBDH   SYMBOL    EDATA    BYTE      i
      ---         BLOCKEND  ---      ---       LVL=1
      00FF8672H   LINE      CODE     ---       #60
      00FF8676H   LINE      CODE     ---       #61
      00FF8676H   LINE      CODE     ---       #62
      00FF867CH   LINE      CODE     ---       #64
      00FF867FH   LINE      CODE     ---       #65
      00FF8682H   LINE      CODE     ---       #66
      00FF8685H   LINE      CODE     ---       #68
      00FF8687H   LINE      CODE     ---       #70
      00FF8693H   LINE      CODE     ---       #71
      00FF8696H   LINE      CODE     ---       #72
L251 LINKER/LOCATER V4.66.93.0                                                        03/12/2024  22:09:15  PAGE 54


      00FF8699H   LINE      CODE     ---       #74
      00FF869CH   LINE      CODE     ---       #75
      00FF86A6H   LINE      CODE     ---       #76
      00FF86BAH   LINE      CODE     ---       #77
      00FF86BDH   LINE      CODE     ---       #78
      ---         BLOCKEND  ---      ---       LVL=0

      00FF86BEH   BLOCK     CODE     ---       LVL=0
      00000DBEH   SYMBOL    EDATA    BYTE      dat
      00FF86C2H   BLOCK     CODE     NEAR LAB  LVL=1
      00000DBFH   SYMBOL    EDATA    BYTE      i
      ---         BLOCKEND  ---      ---       LVL=1
      00FF86BEH   LINE      CODE     ---       #87
      00FF86C2H   LINE      CODE     ---       #88
      00FF86C2H   LINE      CODE     ---       #89
      00FF86C8H   LINE      CODE     ---       #91
      00FF86CBH   LINE      CODE     ---       #92
      00FF86CEH   LINE      CODE     ---       #93
      00FF86D1H   LINE      CODE     ---       #94
      00FF86D3H   LINE      CODE     ---       #96
      00FF86DFH   LINE      CODE     ---       #97
      00FF86E2H   LINE      CODE     ---       #98
      00FF86E5H   LINE      CODE     ---       #100
      00FF86E8H   LINE      CODE     ---       #101
      00FF86F2H   LINE      CODE     ---       #102
      00FF8706H   LINE      CODE     ---       #103
      00FF8709H   LINE      CODE     ---       #104
      ---         BLOCKEND  ---      ---       LVL=0

      00FF83DCH   BLOCK     CODE     ---       LVL=0
      00000D7FH   SYMBOL    EDATA    WORD      dat
      00FF83E0H   BLOCK     CODE     NEAR LAB  LVL=1
      00000D81H   SYMBOL    EDATA    BYTE      i
      ---         BLOCKEND  ---      ---       LVL=1
      00FF83DCH   LINE      CODE     ---       #113
      00FF83E0H   LINE      CODE     ---       #114
      00FF83E0H   LINE      CODE     ---       #115
      00FF83E6H   LINE      CODE     ---       #117
      00FF83E9H   LINE      CODE     ---       #118
      00FF83ECH   LINE      CODE     ---       #119
      00FF83EFH   LINE      CODE     ---       #121
      00FF83F1H   LINE      CODE     ---       #123
      00FF8406H   LINE      CODE     ---       #124
      00FF8409H   LINE      CODE     ---       #125
      00FF840CH   LINE      CODE     ---       #127
      00FF840FH   LINE      CODE     ---       #128
      00FF8419H   LINE      CODE     ---       #129
      00FF842DH   LINE      CODE     ---       #131
      00FF8430H   LINE      CODE     ---       #133
      ---         BLOCKEND  ---      ---       LVL=0

      00FF8041H   BLOCK     CODE     ---       LVL=0
      00000BDCH   SYMBOL    EDATA    WORD      x_start
      00000BDEH   SYMBOL    EDATA    WORD      y_start
      00000BE0H   SYMBOL    EDATA    WORD      x_end
      00000BE2H   SYMBOL    EDATA    WORD      y_end
      00FF8041H   LINE      CODE     ---       #145
      00FF8051H   LINE      CODE     ---       #163
      00FF8056H   LINE      CODE     ---       #164
      00FF805AH   LINE      CODE     ---       #165
      00FF8067H   LINE      CODE     ---       #166
      00FF806BH   LINE      CODE     ---       #167
      00FF8078H   LINE      CODE     ---       #169
      00FF807DH   LINE      CODE     ---       #170
      00FF8081H   LINE      CODE     ---       #171
L251 LINKER/LOCATER V4.66.93.0                                                        03/12/2024  22:09:15  PAGE 55


      00FF808EH   LINE      CODE     ---       #172
      00FF8092H   LINE      CODE     ---       #173
      00FF809FH   LINE      CODE     ---       #177
      00FF80A4H   LINE      CODE     ---       #178
      ---         BLOCKEND  ---      ---       LVL=0
      00000D49H   SYMBOL    EDATA    INT       color
      00000D4BH   SYMBOL    EDATA    BYTE      i
      00000D4CH   SYMBOL    EDATA    BYTE      j
      00000C85H   SYMBOL    EDATA    WORD      x
      00000C87H   SYMBOL    EDATA    WORD      y
      00000C89H   SYMBOL    EDATA    WORD      color
      00000BE4H   SYMBOL    EDATA    WORD      x
      00000BE6H   SYMBOL    EDATA    WORD      y
      00000BE8H   SYMBOL    EDATA    CHAR      dat
      00000BE9H   SYMBOL    EDATA    BYTE      i
      00000BEAH   SYMBOL    EDATA    BYTE      j
      00000BEBH   SYMBOL    EDATA    BYTE      temp
      00000A9AH   SYMBOL    EDATA    WORD      x
      00000A9CH   SYMBOL    EDATA    WORD      y
      00000A9EH   SYMBOL    EDATA    ---       dat
      00000AA2H   SYMBOL    EDATA    WORD      j
      00000AF4H   SYMBOL    EDATA    WORD      x
      00000AF6H   SYMBOL    EDATA    WORD      y
      00000AF8H   SYMBOL    EDATA    CHAR      dat
      00000AF9H   SYMBOL    EDATA    ---       a
      00000AFCH   SYMBOL    EDATA    BYTE      i
      00000AFDH   SYMBOL    EDATA    WORD      x
      00000AFFH   SYMBOL    EDATA    WORD      y
      00000B01H   SYMBOL    EDATA    BYTE      dat
      00000B02H   SYMBOL    EDATA    ---       a
      00000B05H   SYMBOL    EDATA    BYTE      i
      0000097AH   SYMBOL    EDATA    WORD      x
      0000097CH   SYMBOL    EDATA    WORD      y
      0000097EH   SYMBOL    EDATA    INT       dat
      00000980H   SYMBOL    EDATA    ---       a
      00000985H   SYMBOL    EDATA    BYTE      i
      00000986H   SYMBOL    EDATA    WORD      x
      00000988H   SYMBOL    EDATA    WORD      y
      0000098AH   SYMBOL    EDATA    WORD      dat
      0000098CH   SYMBOL    EDATA    ---       a
      00000991H   SYMBOL    EDATA    BYTE      i
      00000646H   SYMBOL    EDATA    WORD      x
      00000648H   SYMBOL    EDATA    WORD      y
      0000064AH   SYMBOL    EDATA    LONG      dat
      0000064EH   SYMBOL    EDATA    BYTE      num
      0000064FH   SYMBOL    EDATA    ---       buff
      00000671H   SYMBOL    EDATA    BYTE      length
      000004F7H   SYMBOL    EDATA    WORD      x
      000004F9H   SYMBOL    EDATA    WORD      y
      000004FBH   SYMBOL    EDATA    FLOAT     dat
      000004FFH   SYMBOL    EDATA    BYTE      num
      00000500H   SYMBOL    EDATA    BYTE      pointnum
      00000501H   SYMBOL    EDATA    BYTE      length
      00000502H   SYMBOL    EDATA    ---       buff
      00000524H   SYMBOL    EDATA    CHAR      start
      00000525H   SYMBOL    EDATA    CHAR      end
      00000526H   SYMBOL    EDATA    CHAR      point

      00FF8ED4H   BLOCK     CODE     ---       LVL=0
      00000DFCH   SYMBOL    EDATA    BYTE      dat
      00FF8ED4H   LINE      CODE     ---       #607
      00FF8ED8H   LINE      CODE     ---       #610
      00FF8EDBH   LINE      CODE     ---       #611
      00FF8EDEH   LINE      CODE     ---       #612
      00FF8EE5H   LINE      CODE     ---       #613
L251 LINKER/LOCATER V4.66.93.0                                                        03/12/2024  22:09:15  PAGE 56


      00FF8EE8H   LINE      CODE     ---       #614
      ---         BLOCKEND  ---      ---       LVL=0

      00FF8EE9H   BLOCK     CODE     ---       LVL=0
      00000DFDH   SYMBOL    EDATA    BYTE      dat
      00FF8EE9H   LINE      CODE     ---       #623
      00FF8EEDH   LINE      CODE     ---       #625
      00FF8EF0H   LINE      CODE     ---       #626
      00FF8EF3H   LINE      CODE     ---       #627
      00FF8EFAH   LINE      CODE     ---       #628
      00FF8EFDH   LINE      CODE     ---       #629
      ---         BLOCKEND  ---      ---       LVL=0

      00FF8B88H   BLOCK     CODE     ---       LVL=0
      00000D4DH   SYMBOL    EDATA    WORD      dat
      00FF8B8CH   BLOCK     CODE     NEAR LAB  LVL=1
      00000D4FH   SYMBOL    EDATA    ---       dat1
      ---         BLOCKEND  ---      ---       LVL=1
      00FF8B88H   LINE      CODE     ---       #638
      00FF8B8CH   LINE      CODE     ---       #639
      00FF8B8CH   LINE      CODE     ---       #642
      00FF8B92H   LINE      CODE     ---       #643
      00FF8B9AH   LINE      CODE     ---       #645
      00FF8B9DH   LINE      CODE     ---       #646
      00FF8BA0H   LINE      CODE     ---       #647
      00FF8BA7H   LINE      CODE     ---       #648
      00FF8BAEH   LINE      CODE     ---       #649
      00FF8BB1H   LINE      CODE     ---       #651
      ---         BLOCKEND  ---      ---       LVL=0

      00FF80A5H   BLOCK     CODE     ---       LVL=0
      00000BECH   SYMBOL    EDATA    WORD      x_start
      00000BEEH   SYMBOL    EDATA    WORD      y_start
      00000BF0H   SYMBOL    EDATA    WORD      x_end
      00000BF2H   SYMBOL    EDATA    WORD      y_end
      00FF80A5H   LINE      CODE     ---       #663
      00FF80B5H   LINE      CODE     ---       #681
      00FF80BAH   LINE      CODE     ---       #682
      00FF80BEH   LINE      CODE     ---       #683
      00FF80CBH   LINE      CODE     ---       #684
      00FF80CFH   LINE      CODE     ---       #685
      00FF80DCH   LINE      CODE     ---       #687
      00FF80E1H   LINE      CODE     ---       #688
      00FF80E5H   LINE      CODE     ---       #689
      00FF80F2H   LINE      CODE     ---       #690
      00FF80F6H   LINE      CODE     ---       #691
      00FF8103H   LINE      CODE     ---       #695
      00FF8108H   LINE      CODE     ---       #696
      ---         BLOCKEND  ---      ---       LVL=0
      00000D51H   SYMBOL    EDATA    INT       color
      00000D53H   SYMBOL    EDATA    BYTE      i
      00000D54H   SYMBOL    EDATA    BYTE      j
      00000C8BH   SYMBOL    EDATA    WORD      x
      00000C8DH   SYMBOL    EDATA    WORD      y
      00000C8FH   SYMBOL    EDATA    WORD      color
      00000BF4H   SYMBOL    EDATA    WORD      x
      00000BF6H   SYMBOL    EDATA    WORD      y
      00000BF8H   SYMBOL    EDATA    CHAR      dat
      00000BF9H   SYMBOL    EDATA    BYTE      i
      00000BFAH   SYMBOL    EDATA    BYTE      j
      00000BFBH   SYMBOL    EDATA    BYTE      temp
      00000AA4H   SYMBOL    EDATA    WORD      x
      00000AA6H   SYMBOL    EDATA    WORD      y
      00000AA8H   SYMBOL    EDATA    ---       dat
      00000AACH   SYMBOL    EDATA    WORD      j
L251 LINKER/LOCATER V4.66.93.0                                                        03/12/2024  22:09:15  PAGE 57


      00000B06H   SYMBOL    EDATA    WORD      x
      00000B08H   SYMBOL    EDATA    WORD      y
      00000B0AH   SYMBOL    EDATA    CHAR      dat
      00000B0BH   SYMBOL    EDATA    ---       a
      00000B0EH   SYMBOL    EDATA    BYTE      i
      00000B0FH   SYMBOL    EDATA    WORD      x
      00000B11H   SYMBOL    EDATA    WORD      y
      00000B13H   SYMBOL    EDATA    BYTE      dat
      00000B14H   SYMBOL    EDATA    ---       a
      00000B17H   SYMBOL    EDATA    BYTE      i
      00000992H   SYMBOL    EDATA    WORD      x
      00000994H   SYMBOL    EDATA    WORD      y
      00000996H   SYMBOL    EDATA    INT       dat
      00000998H   SYMBOL    EDATA    ---       a
      0000099DH   SYMBOL    EDATA    BYTE      i
      0000099EH   SYMBOL    EDATA    WORD      x
      000009A0H   SYMBOL    EDATA    WORD      y
      000009A2H   SYMBOL    EDATA    WORD      dat
      000009A4H   SYMBOL    EDATA    ---       a
      000009A9H   SYMBOL    EDATA    BYTE      i
      00000672H   SYMBOL    EDATA    WORD      x
      00000674H   SYMBOL    EDATA    WORD      y
      00000676H   SYMBOL    EDATA    LONG      dat
      0000067AH   SYMBOL    EDATA    BYTE      num
      0000067BH   SYMBOL    EDATA    ---       buff
      0000069DH   SYMBOL    EDATA    BYTE      length
      00000527H   SYMBOL    EDATA    WORD      x
      00000529H   SYMBOL    EDATA    WORD      y
      0000052BH   SYMBOL    EDATA    FLOAT     dat
      0000052FH   SYMBOL    EDATA    BYTE      num
      00000530H   SYMBOL    EDATA    BYTE      pointnum
      00000531H   SYMBOL    EDATA    BYTE      length
      00000532H   SYMBOL    EDATA    ---       buff
      00000554H   SYMBOL    EDATA    CHAR      start
      00000555H   SYMBOL    EDATA    CHAR      end
      00000556H   SYMBOL    EDATA    CHAR      point
      000009AAH   SYMBOL    EDATA    ---       p
      000009AEH   SYMBOL    EDATA    INT       i
      000009B0H   SYMBOL    EDATA    INT       j
      000009B2H   SYMBOL    EDATA    INT       k
      000009B4H   SYMBOL    EDATA    BYTE      picH
      000009B5H   SYMBOL    EDATA    BYTE      picL

      ---         MODULE    ---      ---       SEEKFREE_BLUETOOTH_CH9141
      00FF8E28H   PUBLIC    CODE     ---       bluetooth_ch9141_uart_callback
      000000D0H   SFRSYM    DATA     BYTE      PSW
      0000009DH   SFRSYM    DATA     BYTE      IRCBAND
      00000097H   SFRSYM    DATA     BYTE      AUXR2
      000000EFH   SFRSYM    DATA     BYTE      AUXINTIF
      000000FDH   SFRSYM    DATA     BYTE      S4CON
      000000ACH   SFRSYM    DATA     BYTE      S3CON
      0000009AH   SFRSYM    DATA     BYTE      S2CON
      000000FEH   SFRSYM    DATA     BYTE      S4BUF
      000000B7H   SFRSYM    DATA     BYTE      IPH
      000000CDH   SFRSYM    DATA     BYTE      SPSTAT
      000000DDH   SFRSYM    DATA     BYTE      T4T3M
      000000C1H   SFRSYM    DATA     BYTE      WDT_CONTR
      000000DFH   SFRSYM    DATA     BYTE      IP3
      000000F4H   SFRSYM    DATA     BYTE      USBCON
      000000B5H   SFRSYM    DATA     BYTE      IP2
      000000FFH   SFRSYM    DATA     BYTE      RSTCFG
      000000F9H   SFRSYM    DATA     BYTE      LINICR
      0000008EH   SFRSYM    DATA     BYTE      AUXR
      000000AFH   SFRSYM    DATA     BYTE      IE2
      00000080H.7 SFRSYM    DATA     BIT       P07
L251 LINKER/LOCATER V4.66.93.0                                                        03/12/2024  22:09:15  PAGE 58


      00000088H   SFRSYM    DATA     BYTE      TCON
      00000098H   SFRSYM    DATA     BYTE      SCON
      000000F1H   SFRSYM    DATA     BYTE      CANICR
      00000087H   SFRSYM    DATA     BYTE      PCON
      000000BCH   SFRSYM    DATA     BYTE      ADC_CONTR
      000000E7H   SFRSYM    DATA     BYTE      CMPCR2
      000000E6H   SFRSYM    DATA     BYTE      CMPCR1
      000000B8H   SFRSYM    DATA     BYTE      IP
      0000008FH   SFRSYM    DATA     BYTE      INTCLKO
      000000EEH   SFRSYM    DATA     BYTE      IP3H
      000000B6H   SFRSYM    DATA     BYTE      IP2H
      000000A8H   SFRSYM    DATA     BYTE      IE
      000000BBH   SFRSYM    DATA     BYTE      P_SW3
      000000BAH   SFRSYM    DATA     BYTE      P_SW2
      000000A2H   SFRSYM    DATA     BYTE      P_SW1
      000000CEH   SFRSYM    DATA     BYTE      SPCTL
      000000F8H   SFRSYM    DATA     BYTE      P7
      000000E8H   SFRSYM    DATA     BYTE      P6
      000000C8H   SFRSYM    DATA     BYTE      P5
      000000C0H   SFRSYM    DATA     BYTE      P4
      000000B0H   SFRSYM    DATA     BYTE      P3
      000000A0H   SFRSYM    DATA     BYTE      P2
      00000090H   SFRSYM    DATA     BYTE      P1
      00000080H   SFRSYM    DATA     BYTE      P0
      000003EFH   SYMBOL    EDATA    ---       bluetooth_ch9141_buffer
      0000042FH   SYMBOL    EDATA    BYTE      bluetooth_ch9141_data
      00000430H   SYMBOL    EDATA    ---       bluetooth_ch9141_fifo

      00FF8E28H   BLOCK     CODE     ---       LVL=0
      00FF8E28H   LINE      CODE     ---       #67
      00FF8E28H   LINE      CODE     ---       #70
      00FF8E2EH   LINE      CODE     ---       #71
      00FF8E41H   LINE      CODE     ---       #72
      ---         BLOCKEND  ---      ---       LVL=0
      00000AAEH   SYMBOL    EDATA    ---       buff
      00000AB2H   SYMBOL    EDATA    DWORD     len
      00000AB6H   SYMBOL    EDATA    WORD      time_count
      000009B6H   SYMBOL    EDATA    ---       buff
      000009BAH   SYMBOL    EDATA    DWORD     len
      000009BEH   SYMBOL    EDATA    DWORD     data_len

      ---         MODULE    ---      ---       SEEKFREE_DL1A
      00000D82H   PUBLIC    EDATA    WORD      dl1a_distance_mm
      00000D84H   PUBLIC    EDATA    BYTE      dl1a_finsh_flag
      000000D0H   SFRSYM    DATA     BYTE      PSW
      0000009DH   SFRSYM    DATA     BYTE      IRCBAND
      00000097H   SFRSYM    DATA     BYTE      AUXR2
      000000EFH   SFRSYM    DATA     BYTE      AUXINTIF
      000000FDH   SFRSYM    DATA     BYTE      S4CON
      000000ACH   SFRSYM    DATA     BYTE      S3CON
      0000009AH   SFRSYM    DATA     BYTE      S2CON
      000000B7H   SFRSYM    DATA     BYTE      IPH
      000000CDH   SFRSYM    DATA     BYTE      SPSTAT
      000000DDH   SFRSYM    DATA     BYTE      T4T3M
      000000C1H   SFRSYM    DATA     BYTE      WDT_CONTR
      000000DFH   SFRSYM    DATA     BYTE      IP3
      000000F4H   SFRSYM    DATA     BYTE      USBCON
      000000B5H   SFRSYM    DATA     BYTE      IP2
      000000FFH   SFRSYM    DATA     BYTE      RSTCFG
      000000F9H   SFRSYM    DATA     BYTE      LINICR
      0000008EH   SFRSYM    DATA     BYTE      AUXR
      000000AFH   SFRSYM    DATA     BYTE      IE2
      000000C0H.7 SFRSYM    DATA     BIT       P47
      000000E8H.5 SFRSYM    DATA     BIT       P65
      000000E8H.3 SFRSYM    DATA     BIT       P63
L251 LINKER/LOCATER V4.66.93.0                                                        03/12/2024  22:09:15  PAGE 59


      00000088H   SFRSYM    DATA     BYTE      TCON
      00000098H   SFRSYM    DATA     BYTE      SCON
      000000F1H   SFRSYM    DATA     BYTE      CANICR
      00000087H   SFRSYM    DATA     BYTE      PCON
      000000BCH   SFRSYM    DATA     BYTE      ADC_CONTR
      000000E7H   SFRSYM    DATA     BYTE      CMPCR2
      000000E6H   SFRSYM    DATA     BYTE      CMPCR1
      000000B8H   SFRSYM    DATA     BYTE      IP
      0000008FH   SFRSYM    DATA     BYTE      INTCLKO
      000000EEH   SFRSYM    DATA     BYTE      IP3H
      000000B6H   SFRSYM    DATA     BYTE      IP2H
      000000A8H   SFRSYM    DATA     BYTE      IE
      000000BBH   SFRSYM    DATA     BYTE      P_SW3
      000000BAH   SFRSYM    DATA     BYTE      P_SW2
      000000A2H   SFRSYM    DATA     BYTE      P_SW1
      000000CEH   SFRSYM    DATA     BYTE      SPCTL
      000000F8H   SFRSYM    DATA     BYTE      P7
      000000E8H   SFRSYM    DATA     BYTE      P6
      000000C8H   SFRSYM    DATA     BYTE      P5
      000000C0H   SFRSYM    DATA     BYTE      P4
      000000B0H   SFRSYM    DATA     BYTE      P3
      000000A0H   SFRSYM    DATA     BYTE      P2
      00000090H   SFRSYM    DATA     BYTE      P1
      00000080H   SFRSYM    DATA     BYTE      P0
      00FF8C06H   SYMBOL    CODE     ---       dl1a_simiic_sendack
      00FF8581H   SYMBOL    CODE     ---       dl1a_timeout_microseconds_to_mclks
      00FF852EH   SYMBOL    CODE     ---       dl1a_timeout_mclks_to_microseconds
      00FF7F05H   SYMBOL    CODE     ---       dl1a_read_ch
      00FF8BB2H   SYMBOL    CODE     ---       dl1a_decode_timeout
      00FF8839H   SYMBOL    CODE     ---       dl1a_send_ch
      00FF7BDAH   SYMBOL    CODE     ---       dl1a_encode_timeout
      00FF7B4CH   SYMBOL    CODE     ---       dl1a_get_sequence_step_enables
      00FF8D33H   SYMBOL    CODE     ---       dl1a_sccb_waitack
      00FF0026H   SYMBOL    CODE     ---       dl1a_simiic_delay
      00FF6825H   SYMBOL    CODE     ---       dl1a_get_sequence_step_timeouts
      00FF8F52H   SYMBOL    CODE     ---       dl1a_simiic_start
      00FF7FD9H   SYMBOL    CODE     ---       dl1a_simiic_read_regs
      00FF8911H   SYMBOL    CODE     ---       dl1a_simiic_write_dats
      00FF8EA8H   SYMBOL    CODE     ---       dl1a_simiic_stop
      00FF7C59H   SYMBOL    CODE     ---       dl1a_get_vcsel_pulse_period

      00FF0026H   BLOCK     CODE     ---       LVL=0
      00000DC0H   SYMBOL    EDATA    WORD      j
      00FF0026H   LINE      CODE     ---       #59
      00FF0026H   LINE      CODE     ---       #60
      00FF0026H   LINE      CODE     ---       #61
      00FF002CH   LINE      CODE     ---       #62
      00FF0042H   LINE      CODE     ---       #63
      ---         BLOCKEND  ---      ---       LVL=0

      00FF8F52H   BLOCK     CODE     ---       LVL=0
      00FF8F52H   LINE      CODE     ---       #66
      00FF8F52H   LINE      CODE     ---       #68
      00FF8F55H   LINE      CODE     ---       #69
      00FF8F58H   LINE      CODE     ---       #70
      00FF8F5BH   LINE      CODE     ---       #71
      00FF8F5EH   LINE      CODE     ---       #72
      00FF8F61H   LINE      CODE     ---       #73
      00FF8F64H   LINE      CODE     ---       #74
      ---         BLOCKEND  ---      ---       LVL=0

      00FF8EA8H   BLOCK     CODE     ---       LVL=0
      00FF8EA8H   LINE      CODE     ---       #77
      00FF8EA8H   LINE      CODE     ---       #79
      00FF8EABH   LINE      CODE     ---       #80
L251 LINKER/LOCATER V4.66.93.0                                                        03/12/2024  22:09:15  PAGE 60


      00FF8EAEH   LINE      CODE     ---       #81
      00FF8EB1H   LINE      CODE     ---       #82
      00FF8EB4H   LINE      CODE     ---       #83
      00FF8EB7H   LINE      CODE     ---       #84
      00FF8EBAH   LINE      CODE     ---       #85
      00FF8EBDH   LINE      CODE     ---       #86
      ---         BLOCKEND  ---      ---       LVL=0

      00FF8C06H   BLOCK     CODE     ---       LVL=0
      00000DFEH   SYMBOL    EDATA    BYTE      ack_dat
      00FF8C06H   LINE      CODE     ---       #90
      00FF8C0AH   LINE      CODE     ---       #92
      00FF8C0DH   LINE      CODE     ---       #93
      00FF8C10H   LINE      CODE     ---       #94
      00FF8C1EH   LINE      CODE     ---       #95
      00FF8C21H   LINE      CODE     ---       #97
      00FF8C24H   LINE      CODE     ---       #98
      00FF8C27H   LINE      CODE     ---       #99
      00FF8C2AH   LINE      CODE     ---       #100
      00FF8C2DH   LINE      CODE     ---       #101
      ---         BLOCKEND  ---      ---       LVL=0

      00FF8D33H   BLOCK     CODE     ---       LVL=0
      00FF8D33H   LINE      CODE     ---       #104
      00FF8D33H   LINE      CODE     ---       #106
      00FF8D36H   LINE      CODE     ---       #108
      00FF8D39H   LINE      CODE     ---       #110
      00FF8D3CH   LINE      CODE     ---       #111
      00FF8D3FH   LINE      CODE     ---       #113
      00FF8D42H   LINE      CODE     ---       #116
      00FF8D45H   LINE      CODE     ---       #117
      00FF8D49H   LINE      CODE     ---       #118
      00FF8D49H   LINE      CODE     ---       #120
      00FF8D4CH   LINE      CODE     ---       #121
      00FF8D4FH   LINE      CODE     ---       #122
      00FF8D53H   LINE      CODE     ---       #123
      ---         BLOCKEND  ---      ---       LVL=0

      00FF8839H   BLOCK     CODE     ---       LVL=0
      00000DC2H   SYMBOL    EDATA    BYTE      c
      00FF883DH   BLOCK     CODE     NEAR LAB  LVL=1
      00000DC3H   SYMBOL    EDATA    BYTE      i
      ---         BLOCKEND  ---      ---       LVL=1
      00FF8839H   LINE      CODE     ---       #129
      00FF883DH   LINE      CODE     ---       #130
      00FF883DH   LINE      CODE     ---       #131
      00FF8843H   LINE      CODE     ---       #132
      00FF8845H   LINE      CODE     ---       #134
      00FF8851H   LINE      CODE     ---       #135
      00FF8854H   LINE      CODE     ---       #136
      00FF885EH   LINE      CODE     ---       #137
      00FF8861H   LINE      CODE     ---       #138
      00FF8864H   LINE      CODE     ---       #139
      00FF8867H   LINE      CODE     ---       #140
      00FF886AH   LINE      CODE     ---       #141
      00FF887EH   LINE      CODE     ---       #142
      00FF8881H   LINE      CODE     ---       #143
      ---         BLOCKEND  ---      ---       LVL=0

      00FF7F05H   BLOCK     CODE     ---       LVL=0
      00000D85H   SYMBOL    EDATA    BYTE      ack_x
      00FF7F09H   BLOCK     CODE     NEAR LAB  LVL=1
      00000D86H   SYMBOL    EDATA    BYTE      i
      00000D87H   SYMBOL    EDATA    BYTE      c
      ---         BLOCKEND  ---      ---       LVL=1
L251 LINKER/LOCATER V4.66.93.0                                                        03/12/2024  22:09:15  PAGE 61


      00FF7F05H   LINE      CODE     ---       #149
      00FF7F09H   LINE      CODE     ---       #150
      00FF7F09H   LINE      CODE     ---       #153
      00FF7F0EH   LINE      CODE     ---       #154
      00FF7F11H   LINE      CODE     ---       #155
      00FF7F14H   LINE      CODE     ---       #156
      00FF7F17H   LINE      CODE     ---       #158
      00FF7F1EH   LINE      CODE     ---       #160
      00FF7F21H   LINE      CODE     ---       #161
      00FF7F24H   LINE      CODE     ---       #162
      00FF7F27H   LINE      CODE     ---       #163
      00FF7F2AH   LINE      CODE     ---       #164
      00FF7F2DH   LINE      CODE     ---       #165
      00FF7F37H   LINE      CODE     ---       #166
      00FF7F3AH   LINE      CODE     ---       #168
      00FF7F46H   LINE      CODE     ---       #169
      00FF7F5DH   LINE      CODE     ---       #172
      00FF7F60H   LINE      CODE     ---       #173
      00FF7F63H   LINE      CODE     ---       #174
      00FF7F6AH   LINE      CODE     ---       #176
      00FF7F6EH   LINE      CODE     ---       #177
      ---         BLOCKEND  ---      ---       LVL=0

      00FF8911H   BLOCK     CODE     ---       LVL=0
      00000B18H   SYMBOL    EDATA    BYTE      dev_add
      00000B19H   SYMBOL    EDATA    ---       dat
      00000B1DH   SYMBOL    EDATA    DWORD     len
      00FF8911H   LINE      CODE     ---       #189
      00FF891DH   LINE      CODE     ---       #191
      00FF8920H   LINE      CODE     ---       #192
      00FF8929H   LINE      CODE     ---       #193
      00FF892BH   LINE      CODE     ---       #195
      00FF893BH   LINE      CODE     ---       #196
      00FF894FH   LINE      CODE     ---       #199
      00FF8952H   LINE      CODE     ---       #200
      ---         BLOCKEND  ---      ---       LVL=0
      00000D88H   SYMBOL    EDATA    BYTE      dev_add
      00000D89H   SYMBOL    EDATA    BYTE      reg
      00000D8AH   SYMBOL    EDATA    BYTE      dat
      00000D8BH   SYMBOL    EDATA    BYTE      dev_add
      00000D8CH   SYMBOL    EDATA    BYTE      reg
      00000D8DH   SYMBOL    EDATA    BYTE      dat

      00FF7FD9H   BLOCK     CODE     ---       LVL=0
      00000AB8H   SYMBOL    EDATA    BYTE      dev_add
      00000AB9H   SYMBOL    EDATA    BYTE      reg
      00000ABAH   SYMBOL    EDATA    ---       dat_add
      00000ABEH   SYMBOL    EDATA    DWORD     num
      00FF7FD9H   LINE      CODE     ---       #257
      00FF7FE5H   LINE      CODE     ---       #259
      00FF7FE8H   LINE      CODE     ---       #260
      00FF7FF1H   LINE      CODE     ---       #261
      00FF7FF8H   LINE      CODE     ---       #264
      00FF7FFBH   LINE      CODE     ---       #265
      00FF8008H   LINE      CODE     ---       #266
      00FF800AH   LINE      CODE     ---       #268
      00FF8016H   LINE      CODE     ---       #269
      00FF8020H   LINE      CODE     ---       #270
      00FF8032H   LINE      CODE     ---       #271
      00FF803DH   LINE      CODE     ---       #272
      00FF8040H   LINE      CODE     ---       #273
      ---         BLOCKEND  ---      ---       LVL=0
      00000AC2H   SYMBOL    EDATA    BYTE      dev_add
      00000AC3H   SYMBOL    EDATA    BYTE      reg
      00000AC4H   SYMBOL    EDATA    ---       dat_add
L251 LINKER/LOCATER V4.66.93.0                                                        03/12/2024  22:09:15  PAGE 62


      00000AC8H   SYMBOL    EDATA    DWORD     num
      000009C2H   SYMBOL    EDATA    ---       index
      000009C6H   SYMBOL    EDATA    ---       type_is_aperture
      000009CAH   SYMBOL    EDATA    BYTE      tmp
      000009CBH   SYMBOL    EDATA    BYTE      return_state
      000009CCH   SYMBOL    EDATA    WORD      loop_count

      00FF852EH   BLOCK     CODE     ---       LVL=0
      00000C44H   SYMBOL    EDATA    WORD      timeout_period_mclks
      00000C46H   SYMBOL    EDATA    BYTE      vcsel_period_pclks
      00FF8536H   BLOCK     CODE     NEAR LAB  LVL=1
      00000C47H   SYMBOL    EDATA    DWORD     macro_period_ns
      ---         BLOCKEND  ---      ---       LVL=1
      00FF852EH   LINE      CODE     ---       #401
      00FF8536H   LINE      CODE     ---       #402
      00FF8536H   LINE      CODE     ---       #403
      00FF855DH   LINE      CODE     ---       #405
      00FF8580H   LINE      CODE     ---       #406
      ---         BLOCKEND  ---      ---       LVL=0

      00FF8581H   BLOCK     CODE     ---       LVL=0
      00000B21H   SYMBOL    EDATA    DWORD     timeout_period_us
      00000B25H   SYMBOL    EDATA    BYTE      vcsel_period_pclks
      00FF8589H   BLOCK     CODE     NEAR LAB  LVL=1
      00000B26H   SYMBOL    EDATA    DWORD     macro_period_ns
      ---         BLOCKEND  ---      ---       LVL=1
      00FF8581H   LINE      CODE     ---       #416
      00FF8589H   LINE      CODE     ---       #417
      00FF8589H   LINE      CODE     ---       #418
      00FF85B0H   LINE      CODE     ---       #420
      00FF85D1H   LINE      CODE     ---       #421
      ---         BLOCKEND  ---      ---       LVL=0

      00FF8BB2H   BLOCK     CODE     ---       LVL=0
      00000DC4H   SYMBOL    EDATA    WORD      reg_val
      00FF8BB2H   LINE      CODE     ---       #430
      00FF8BB6H   LINE      CODE     ---       #433
      00FF8BDBH   LINE      CODE     ---       #435
      ---         BLOCKEND  ---      ---       LVL=0

      00FF7BDAH   BLOCK     CODE     ---       LVL=0
      00000ACCH   SYMBOL    EDATA    WORD      timeout_mclks
      00FF7BDEH   BLOCK     CODE     NEAR LAB  LVL=1
      00000ACEH   SYMBOL    EDATA    DWORD     ls_byte
      00000AD2H   SYMBOL    EDATA    WORD      ms_byte
      00000AD4H   SYMBOL    EDATA    WORD      return_data
      ---         BLOCKEND  ---      ---       LVL=1
      00FF7BDAH   LINE      CODE     ---       #444
      00FF7BDEH   LINE      CODE     ---       #445
      00FF7BDEH   LINE      CODE     ---       #446
      00FF7BE4H   LINE      CODE     ---       #447
      00FF7BEAH   LINE      CODE     ---       #448
      00FF7BF0H   LINE      CODE     ---       #450
      00FF7BFAH   LINE      CODE     ---       #453
      00FF7C0AH   LINE      CODE     ---       #454
      00FF7C0CH   LINE      CODE     ---       #456
      00FF7C1DH   LINE      CODE     ---       #457
      00FF7C2BH   LINE      CODE     ---       #458
      00FF7C3CH   LINE      CODE     ---       #459
      00FF7C54H   LINE      CODE     ---       #460
      00FF7C54H   LINE      CODE     ---       #461
      00FF7C58H   LINE      CODE     ---       #462
      ---         BLOCKEND  ---      ---       LVL=0

      00FF7B4CH   BLOCK     CODE     ---       LVL=0
L251 LINKER/LOCATER V4.66.93.0                                                        03/12/2024  22:09:15  PAGE 63


      00000D08H   SYMBOL    EDATA    ---       enables
      00FF7B50H   BLOCK     CODE     NEAR LAB  LVL=1
      00000D0CH   SYMBOL    EDATA    BYTE      sequence_config
      ---         BLOCKEND  ---      ---       LVL=1
      00FF7B4CH   LINE      CODE     ---       #471
      00FF7B50H   LINE      CODE     ---       #472
      00FF7B50H   LINE      CODE     ---       #473
      00FF7B55H   LINE      CODE     ---       #474
      00FF7B69H   LINE      CODE     ---       #476
      00FF7B7DH   LINE      CODE     ---       #477
      00FF7B94H   LINE      CODE     ---       #478
      00FF7BAAH   LINE      CODE     ---       #479
      00FF7BC3H   LINE      CODE     ---       #480
      00FF7BD9H   LINE      CODE     ---       #481
      ---         BLOCKEND  ---      ---       LVL=0

      00FF7C59H   BLOCK     CODE     ---       LVL=0
      00000D8EH   SYMBOL    EDATA    INT       type
      00FF7C5DH   BLOCK     CODE     NEAR LAB  LVL=1
      00000D90H   SYMBOL    EDATA    BYTE      data_buffer
      ---         BLOCKEND  ---      ---       LVL=1
      00FF7C59H   LINE      CODE     ---       #490
      00FF7C5DH   LINE      CODE     ---       #491
      00FF7C5DH   LINE      CODE     ---       #492
      00FF7C62H   LINE      CODE     ---       #493
      00FF7C6CH   LINE      CODE     ---       #495
      00FF7C80H   LINE      CODE     ---       #496
      00FF7C92H   LINE      CODE     ---       #497
      00FF7C94H   LINE      CODE     ---       #498
      00FF7CA0H   LINE      CODE     ---       #500
      00FF7CB4H   LINE      CODE     ---       #501
      00FF7CC6H   LINE      CODE     ---       #502
      00FF7CC8H   LINE      CODE     ---       #505
      00FF7CCEH   LINE      CODE     ---       #506
      00FF7CCEH   LINE      CODE     ---       #507
      00FF7CD2H   LINE      CODE     ---       #508
      ---         BLOCKEND  ---      ---       LVL=0

      00FF6825H   BLOCK     CODE     ---       LVL=0
      000009CEH   SYMBOL    EDATA    ---       enables
      000009D2H   SYMBOL    EDATA    ---       timeouts
      00FF682DH   BLOCK     CODE     NEAR LAB  LVL=1
      000009D6H   SYMBOL    EDATA    ---       reg_buffer
      000009D8H   SYMBOL    EDATA    WORD      reg16_buffer
      ---         BLOCKEND  ---      ---       LVL=1
      00FF6825H   LINE      CODE     ---       #518
      00FF682DH   LINE      CODE     ---       #519
      00FF682DH   LINE      CODE     ---       #521
      00FF6833H   LINE      CODE     ---       #523
      00FF6841H   LINE      CODE     ---       #525
      00FF6855H   LINE      CODE     ---       #526
      00FF686AH   LINE      CODE     ---       #527
      00FF688EH   LINE      CODE     ---       #529
      00FF68A2H   LINE      CODE     ---       #530
      00FF68B8H   LINE      CODE     ---       #531
      00FF68C8H   LINE      CODE     ---       #532
      00FF68EEH   LINE      CODE     ---       #534
      00FF6900H   LINE      CODE     ---       #536
      00FF6914H   LINE      CODE     ---       #537
      00FF692AH   LINE      CODE     ---       #538
      00FF693AH   LINE      CODE     ---       #540
      00FF694AH   LINE      CODE     ---       #542
      00FF6965H   LINE      CODE     ---       #543
      00FF6965H   LINE      CODE     ---       #545
      00FF698DH   LINE      CODE     ---       #546
L251 LINKER/LOCATER V4.66.93.0                                                        03/12/2024  22:09:15  PAGE 64


      ---         BLOCKEND  ---      ---       LVL=0
      00000D0DH   SYMBOL    EDATA    BYTE      vhv_init_byte
      00000D0EH   SYMBOL    EDATA    BYTE      return_state
      00000D0FH   SYMBOL    EDATA    BYTE      data_buffer
      00000D10H   SYMBOL    EDATA    WORD      loop_count
      00000617H   SYMBOL    EDATA    DWORD     budget_us
      0000061BH   SYMBOL    EDATA    BYTE      return_state
      0000061CH   SYMBOL    EDATA    ---       data_buffer
      0000061FH   SYMBOL    EDATA    WORD      dat
      00000621H   SYMBOL    EDATA    DWORD     used_budget_us
      00000625H   SYMBOL    EDATA    DWORD     final_range_timeout_us
      00000629H   SYMBOL    EDATA    WORD      final_range_timeout_mclks
      0000062BH   SYMBOL    EDATA    ---       enables
      00000630H   SYMBOL    EDATA    ---       timeouts
      000007C2H   SYMBOL    EDATA    ---       enables
      000007C7H   SYMBOL    EDATA    ---       timeouts
      000007DDH   SYMBOL    EDATA    DWORD     budget_us
      00000B2AH   SYMBOL    EDATA    FLOAT     limit_mcps
      00000B2EH   SYMBOL    EDATA    ---       data_buffer
      00000B31H   SYMBOL    EDATA    WORD      limit_mcps_16bit
      00000D91H   SYMBOL    EDATA    ---       reg_databuffer
      00000828H   SYMBOL    EDATA    DWORD     measurement_timing_budget_us
      0000082CH   SYMBOL    EDATA    BYTE      stop_variable
      0000082DH   SYMBOL    EDATA    BYTE      return_state
      0000082EH   SYMBOL    EDATA    BYTE      reg_data_buffer
      0000082FH   SYMBOL    EDATA    ---       ref_spad_map
      00000835H   SYMBOL    EDATA    ---       data_buffer
      0000083CH   SYMBOL    EDATA    BYTE      i

      ---         MODULE    ---      ---       SEEKFREE_DL1B
      00000D55H   PUBLIC    EDATA    WORD      dl1b_distance_mm
      00000D57H   PUBLIC    EDATA    BYTE      dl1b_finsh_flag
      00000D58H   PUBLIC    EDATA    BYTE      dl1b_init_flag
      000008D1H   PUBLIC    EDATA    BYTE      ?dl1b_iic_transfer_8bit_array?BYTE
      000000D0H   SFRSYM    DATA     BYTE      PSW
      0000009DH   SFRSYM    DATA     BYTE      IRCBAND
      00000097H   SFRSYM    DATA     BYTE      AUXR2
      000000EFH   SFRSYM    DATA     BYTE      AUXINTIF
      000000FDH   SFRSYM    DATA     BYTE      S4CON
      000000ACH   SFRSYM    DATA     BYTE      S3CON
      0000009AH   SFRSYM    DATA     BYTE      S2CON
      000000B7H   SFRSYM    DATA     BYTE      IPH
      000000CDH   SFRSYM    DATA     BYTE      SPSTAT
      000000DDH   SFRSYM    DATA     BYTE      T4T3M
      000000C1H   SFRSYM    DATA     BYTE      WDT_CONTR
      000000DFH   SFRSYM    DATA     BYTE      IP3
      000000F4H   SFRSYM    DATA     BYTE      USBCON
      000000B5H   SFRSYM    DATA     BYTE      IP2
      000000FFH   SFRSYM    DATA     BYTE      RSTCFG
      000000F9H   SFRSYM    DATA     BYTE      LINICR
      0000008EH   SFRSYM    DATA     BYTE      AUXR
      000000AFH   SFRSYM    DATA     BYTE      IE2
      000000C0H.7 SFRSYM    DATA     BIT       P47
      000000E8H.5 SFRSYM    DATA     BIT       P65
      000000E8H.3 SFRSYM    DATA     BIT       P63
      00000088H   SFRSYM    DATA     BYTE      TCON
      00000098H   SFRSYM    DATA     BYTE      SCON
      000000F1H   SFRSYM    DATA     BYTE      CANICR
      00000087H   SFRSYM    DATA     BYTE      PCON
      000000BCH   SFRSYM    DATA     BYTE      ADC_CONTR
      000000E7H   SFRSYM    DATA     BYTE      CMPCR2
      000000E6H   SFRSYM    DATA     BYTE      CMPCR1
      000000B8H   SFRSYM    DATA     BYTE      IP
      0000008FH   SFRSYM    DATA     BYTE      INTCLKO
      000000EEH   SFRSYM    DATA     BYTE      IP3H
L251 LINKER/LOCATER V4.66.93.0                                                        03/12/2024  22:09:15  PAGE 65


      000000B6H   SFRSYM    DATA     BYTE      IP2H
      000000A8H   SFRSYM    DATA     BYTE      IE
      000000BBH   SFRSYM    DATA     BYTE      P_SW3
      000000BAH   SFRSYM    DATA     BYTE      P_SW2
      000000A2H   SFRSYM    DATA     BYTE      P_SW1
      000000CEH   SFRSYM    DATA     BYTE      SPCTL
      000000F8H   SFRSYM    DATA     BYTE      P7
      000000E8H   SFRSYM    DATA     BYTE      P6
      000000C8H   SFRSYM    DATA     BYTE      P5
      000000C0H   SFRSYM    DATA     BYTE      P4
      000000B0H   SFRSYM    DATA     BYTE      P3
      000000A0H   SFRSYM    DATA     BYTE      P2
      00000090H   SFRSYM    DATA     BYTE      P1
      00000080H   SFRSYM    DATA     BYTE      P0
      00FF8C2EH   SYMBOL    CODE     ---       dl1b_simiic_sendack
      00FF7F6FH   SYMBOL    CODE     ---       dl1b_read_ch
      00FF8882H   SYMBOL    CODE     ---       dl1b_send_ch
      00FF8D54H   SYMBOL    CODE     ---       dl1b_sccb_waitack
      00FF0066H   SYMBOL    CODE     ---       dl1b_simiic_delay

      00FF0066H   BLOCK     CODE     ---       LVL=0
      00000DC6H   SYMBOL    EDATA    WORD      j
      00FF0066H   LINE      CODE     ---       #76
      00FF0066H   LINE      CODE     ---       #77
      00FF0066H   LINE      CODE     ---       #78
      00FF006CH   LINE      CODE     ---       #79
      00FF0082H   LINE      CODE     ---       #80
      ---         BLOCKEND  ---      ---       LVL=0

      00FF8C2EH   BLOCK     CODE     ---       LVL=0
      00000DFFH   SYMBOL    EDATA    BYTE      ack_dat
      00FF8C2EH   LINE      CODE     ---       #107
      00FF8C32H   LINE      CODE     ---       #109
      00FF8C35H   LINE      CODE     ---       #110
      00FF8C38H   LINE      CODE     ---       #111
      00FF8C46H   LINE      CODE     ---       #112
      00FF8C49H   LINE      CODE     ---       #114
      00FF8C4CH   LINE      CODE     ---       #115
      00FF8C4FH   LINE      CODE     ---       #116
      00FF8C52H   LINE      CODE     ---       #117
      00FF8C55H   LINE      CODE     ---       #118
      ---         BLOCKEND  ---      ---       LVL=0

      00FF8D54H   BLOCK     CODE     ---       LVL=0
      00FF8D54H   LINE      CODE     ---       #121
      00FF8D54H   LINE      CODE     ---       #123
      00FF8D57H   LINE      CODE     ---       #125
      00FF8D5AH   LINE      CODE     ---       #127
      00FF8D5DH   LINE      CODE     ---       #128
      00FF8D60H   LINE      CODE     ---       #130
      00FF8D63H   LINE      CODE     ---       #133
      00FF8D66H   LINE      CODE     ---       #134
      00FF8D6AH   LINE      CODE     ---       #135
      00FF8D6AH   LINE      CODE     ---       #137
      00FF8D6DH   LINE      CODE     ---       #138
      00FF8D70H   LINE      CODE     ---       #139
      00FF8D74H   LINE      CODE     ---       #140
      ---         BLOCKEND  ---      ---       LVL=0

      00FF8882H   BLOCK     CODE     ---       LVL=0
      00000DC8H   SYMBOL    EDATA    BYTE      c
      00FF8886H   BLOCK     CODE     NEAR LAB  LVL=1
      00000DC9H   SYMBOL    EDATA    BYTE      i
      ---         BLOCKEND  ---      ---       LVL=1
      00FF8882H   LINE      CODE     ---       #146
L251 LINKER/LOCATER V4.66.93.0                                                        03/12/2024  22:09:15  PAGE 66


      00FF8886H   LINE      CODE     ---       #147
      00FF8886H   LINE      CODE     ---       #148
      00FF888CH   LINE      CODE     ---       #149
      00FF888EH   LINE      CODE     ---       #151
      00FF889AH   LINE      CODE     ---       #152
      00FF889DH   LINE      CODE     ---       #153
      00FF88A7H   LINE      CODE     ---       #154
      00FF88AAH   LINE      CODE     ---       #155
      00FF88ADH   LINE      CODE     ---       #156
      00FF88B0H   LINE      CODE     ---       #157
      00FF88B3H   LINE      CODE     ---       #158
      00FF88C7H   LINE      CODE     ---       #159
      00FF88CAH   LINE      CODE     ---       #160
      ---         BLOCKEND  ---      ---       LVL=0

      00FF7F6FH   BLOCK     CODE     ---       LVL=0
      00000D94H   SYMBOL    EDATA    BYTE      ack_x
      00FF7F73H   BLOCK     CODE     NEAR LAB  LVL=1
      00000D95H   SYMBOL    EDATA    BYTE      i
      00000D96H   SYMBOL    EDATA    BYTE      c
      ---         BLOCKEND  ---      ---       LVL=1
      00FF7F6FH   LINE      CODE     ---       #166
      00FF7F73H   LINE      CODE     ---       #167
      00FF7F73H   LINE      CODE     ---       #170
      00FF7F78H   LINE      CODE     ---       #171
      00FF7F7BH   LINE      CODE     ---       #172
      00FF7F7EH   LINE      CODE     ---       #173
      00FF7F81H   LINE      CODE     ---       #175
      00FF7F88H   LINE      CODE     ---       #177
      00FF7F8BH   LINE      CODE     ---       #178
      00FF7F8EH   LINE      CODE     ---       #179
      00FF7F91H   LINE      CODE     ---       #180
      00FF7F94H   LINE      CODE     ---       #181
      00FF7F97H   LINE      CODE     ---       #182
      00FF7FA1H   LINE      CODE     ---       #183
      00FF7FA4H   LINE      CODE     ---       #185
      00FF7FB0H   LINE      CODE     ---       #186
      00FF7FC7H   LINE      CODE     ---       #189
      00FF7FCAH   LINE      CODE     ---       #190
      00FF7FCDH   LINE      CODE     ---       #191
      00FF7FD4H   LINE      CODE     ---       #193
      00FF7FD8H   LINE      CODE     ---       #194
      ---         BLOCKEND  ---      ---       LVL=0
      000008D1H   SYMBOL    EDATA    ---       write_data
      000008D5H   SYMBOL    EDATA    DWORD     write_len
      000008D9H   SYMBOL    EDATA    ---       read_data
      000008DDH   SYMBOL    EDATA    DWORD     read_len
      00000D12H   SYMBOL    EDATA    ---       data_buffer
      00000D15H   SYMBOL    EDATA    INT       dl1b_distance_temp
      00000304H   SYMBOL    EDATA    BYTE      return_state
      00000305H   SYMBOL    EDATA    ---       data_buffer
      0000038EH   SYMBOL    EDATA    WORD      time_out_count

      ---         MODULE    ---      ---       SEEKFREE_FONT
      00FF212DH   PUBLIC    CODE     ---       oled_8x16
      00FF271DH   PUBLIC    CODE     ---       tft_ascii
      00FF2D0DH   PUBLIC    CODE     ---       oled_6x8
      000000D0H   SFRSYM    DATA     BYTE      PSW
      0000009DH   SFRSYM    DATA     BYTE      IRCBAND
      00000097H   SFRSYM    DATA     BYTE      AUXR2
      000000EFH   SFRSYM    DATA     BYTE      AUXINTIF
      000000FDH   SFRSYM    DATA     BYTE      S4CON
      000000ACH   SFRSYM    DATA     BYTE      S3CON
      0000009AH   SFRSYM    DATA     BYTE      S2CON
      000000B7H   SFRSYM    DATA     BYTE      IPH
L251 LINKER/LOCATER V4.66.93.0                                                        03/12/2024  22:09:15  PAGE 67


      000000CDH   SFRSYM    DATA     BYTE      SPSTAT
      000000DDH   SFRSYM    DATA     BYTE      T4T3M
      000000C1H   SFRSYM    DATA     BYTE      WDT_CONTR
      000000DFH   SFRSYM    DATA     BYTE      IP3
      000000F4H   SFRSYM    DATA     BYTE      USBCON
      000000B5H   SFRSYM    DATA     BYTE      IP2
      000000FFH   SFRSYM    DATA     BYTE      RSTCFG
      000000F9H   SFRSYM    DATA     BYTE      LINICR
      0000008EH   SFRSYM    DATA     BYTE      AUXR
      000000AFH   SFRSYM    DATA     BYTE      IE2
      00000088H   SFRSYM    DATA     BYTE      TCON
      00000098H   SFRSYM    DATA     BYTE      SCON
      000000F1H   SFRSYM    DATA     BYTE      CANICR
      00000087H   SFRSYM    DATA     BYTE      PCON
      000000BCH   SFRSYM    DATA     BYTE      ADC_CONTR
      000000E7H   SFRSYM    DATA     BYTE      CMPCR2
      000000E6H   SFRSYM    DATA     BYTE      CMPCR1
      000000B8H   SFRSYM    DATA     BYTE      IP
      0000008FH   SFRSYM    DATA     BYTE      INTCLKO
      000000EEH   SFRSYM    DATA     BYTE      IP3H
      000000B6H   SFRSYM    DATA     BYTE      IP2H
      000000A8H   SFRSYM    DATA     BYTE      IE
      000000BBH   SFRSYM    DATA     BYTE      P_SW3
      000000BAH   SFRSYM    DATA     BYTE      P_SW2
      000000A2H   SFRSYM    DATA     BYTE      P_SW1
      000000CEH   SFRSYM    DATA     BYTE      SPCTL
      000000F8H   SFRSYM    DATA     BYTE      P7
      000000E8H   SFRSYM    DATA     BYTE      P6
      000000C8H   SFRSYM    DATA     BYTE      P5
      000000C0H   SFRSYM    DATA     BYTE      P4
      000000B0H   SFRSYM    DATA     BYTE      P3
      000000A0H   SFRSYM    DATA     BYTE      P2
      00000090H   SFRSYM    DATA     BYTE      P1
      00000080H   SFRSYM    DATA     BYTE      P0

      ---         MODULE    ---      ---       SEEKFREE_ICM20602
      000009DAH   PUBLIC    EDATA    INT       icm20602_acc_x
      000009DCH   PUBLIC    EDATA    INT       icm20602_acc_y
      000009DEH   PUBLIC    EDATA    INT       icm20602_acc_z
      000009E0H   PUBLIC    EDATA    INT       icm20602_gyro_x
      000009E2H   PUBLIC    EDATA    INT       icm20602_gyro_y
      000009E4H   PUBLIC    EDATA    INT       icm20602_gyro_z
      000000D0H   SFRSYM    DATA     BYTE      PSW
      0000009DH   SFRSYM    DATA     BYTE      IRCBAND
      00000097H   SFRSYM    DATA     BYTE      AUXR2
      000000EFH   SFRSYM    DATA     BYTE      AUXINTIF
      000000FDH   SFRSYM    DATA     BYTE      S4CON
      000000ACH   SFRSYM    DATA     BYTE      S3CON
      0000009AH   SFRSYM    DATA     BYTE      S2CON
      000000B7H   SFRSYM    DATA     BYTE      IPH
      000000CDH   SFRSYM    DATA     BYTE      SPSTAT
      000000DDH   SFRSYM    DATA     BYTE      T4T3M
      000000C1H   SFRSYM    DATA     BYTE      WDT_CONTR
      000000DFH   SFRSYM    DATA     BYTE      IP3
      000000F4H   SFRSYM    DATA     BYTE      USBCON
      000000B5H   SFRSYM    DATA     BYTE      IP2
      000000FFH   SFRSYM    DATA     BYTE      RSTCFG
      000000F9H   SFRSYM    DATA     BYTE      LINICR
      0000008EH   SFRSYM    DATA     BYTE      AUXR
      000000AFH   SFRSYM    DATA     BYTE      IE2
      000000C0H.3 SFRSYM    DATA     BIT       P43
      000000C0H.2 SFRSYM    DATA     BIT       P42
      00000088H   SFRSYM    DATA     BYTE      TCON
      000000C0H.1 SFRSYM    DATA     BIT       P41
      00000098H   SFRSYM    DATA     BYTE      SCON
L251 LINKER/LOCATER V4.66.93.0                                                        03/12/2024  22:09:15  PAGE 68


      000000C0H.0 SFRSYM    DATA     BIT       P40
      000000F1H   SFRSYM    DATA     BYTE      CANICR
      00000087H   SFRSYM    DATA     BYTE      PCON
      000000BCH   SFRSYM    DATA     BYTE      ADC_CONTR
      000000E7H   SFRSYM    DATA     BYTE      CMPCR2
      000000E6H   SFRSYM    DATA     BYTE      CMPCR1
      000000B8H   SFRSYM    DATA     BYTE      IP
      0000008FH   SFRSYM    DATA     BYTE      INTCLKO
      000000EEH   SFRSYM    DATA     BYTE      IP3H
      000000B6H   SFRSYM    DATA     BYTE      IP2H
      000000A8H   SFRSYM    DATA     BYTE      IE
      000000BBH   SFRSYM    DATA     BYTE      P_SW3
      000000BAH   SFRSYM    DATA     BYTE      P_SW2
      000000A2H   SFRSYM    DATA     BYTE      P_SW1
      000000CEH   SFRSYM    DATA     BYTE      SPCTL
      000000F8H   SFRSYM    DATA     BYTE      P7
      000000E8H   SFRSYM    DATA     BYTE      P6
      000000C8H   SFRSYM    DATA     BYTE      P5
      000000C0H   SFRSYM    DATA     BYTE      P4
      000000B0H   SFRSYM    DATA     BYTE      P3
      000000A0H   SFRSYM    DATA     BYTE      P2
      00000090H   SFRSYM    DATA     BYTE      P1
      00000080H   SFRSYM    DATA     BYTE      P0
      00FF8D96H   SYMBOL    CODE     ---       icm20602_read_register
      00FF8222H   SYMBOL    CODE     ---       icm20602_simspi_wr_byte
      00FF85D2H   SYMBOL    CODE     ---       icm20602_simspi_r_reg_bytes
      00FF8C7EH   SYMBOL    CODE     ---       icm20602_simspi_r_reg_byte

      00FF8222H   BLOCK     CODE     ---       LVL=0
      00000DCAH   SYMBOL    EDATA    BYTE      byte
      00FF8226H   BLOCK     CODE     NEAR LAB  LVL=1
      00000DCBH   SYMBOL    EDATA    BYTE      i
      ---         BLOCKEND  ---      ---       LVL=1
      00FF8222H   LINE      CODE     ---       #278
      00FF8226H   LINE      CODE     ---       #279
      00FF8226H   LINE      CODE     ---       #282
      00FF822DH   LINE      CODE     ---       #284
      00FF823BH   LINE      CODE     ---       #285
      00FF8245H   LINE      CODE     ---       #286
      00FF8248H   LINE      CODE     ---       #287
      00FF824BH   LINE      CODE     ---       #289
      00FF824EH   LINE      CODE     ---       #290
      00FF8251H   LINE      CODE     ---       #291
      00FF825FH   LINE      CODE     ---       #292
      00FF8276H   LINE      CODE     ---       #293
      00FF827AH   LINE      CODE     ---       #294
      ---         BLOCKEND  ---      ---       LVL=0
      00000DCCH   SYMBOL    EDATA    BYTE      cmd
      00000DCDH   SYMBOL    EDATA    BYTE      val

      00FF8C7EH   BLOCK     CODE     ---       LVL=0
      00000D17H   SYMBOL    EDATA    BYTE      cmd
      00000D18H   SYMBOL    EDATA    ---       val
      00FF8C7EH   LINE      CODE     ---       #340
      00FF8C86H   LINE      CODE     ---       #343
      00FF8C92H   LINE      CODE     ---       #344
      00FF8C99H   LINE      CODE     ---       #345
      00FF8CA4H   LINE      CODE     ---       #347
      ---         BLOCKEND  ---      ---       LVL=0

      00FF85D2H   BLOCK     CODE     ---       LVL=0
      00000954H   SYMBOL    EDATA    BYTE      cmd
      00000955H   SYMBOL    EDATA    ---       val
      00000959H   SYMBOL    EDATA    DWORD     num
      00FF85DEH   BLOCK     CODE     NEAR LAB  LVL=1
L251 LINKER/LOCATER V4.66.93.0                                                        03/12/2024  22:09:15  PAGE 69


      0000095DH   SYMBOL    EDATA    DWORD     i
      ---         BLOCKEND  ---      ---       LVL=1
      00FF85D2H   LINE      CODE     ---       #357
      00FF85DEH   LINE      CODE     ---       #358
      00FF85DEH   LINE      CODE     ---       #359
      00FF85E4H   LINE      CODE     ---       #360
      00FF85F0H   LINE      CODE     ---       #361
      00FF85F7H   LINE      CODE     ---       #363
      00FF85F9H   LINE      CODE     ---       #365
      00FF860EH   LINE      CODE     ---       #366
      00FF8622H   LINE      CODE     ---       #367
      ---         BLOCKEND  ---      ---       LVL=0
      00000DCEH   SYMBOL    EDATA    BYTE      reg
      00000DCFH   SYMBOL    EDATA    BYTE      dat

      00FF8D96H   BLOCK     CODE     ---       LVL=0
      00000DD0H   SYMBOL    EDATA    BYTE      reg
      00FF8D9AH   BLOCK     CODE     NEAR LAB  LVL=1
      00000DD1H   SYMBOL    EDATA    BYTE      dat
      ---         BLOCKEND  ---      ---       LVL=1
      00FF8D96H   LINE      CODE     ---       #407
      00FF8D9AH   LINE      CODE     ---       #408
      00FF8D9AH   LINE      CODE     ---       #410
      00FF8D9DH   LINE      CODE     ---       #411
      00FF8DACH   LINE      CODE     ---       #412
      00FF8DAFH   LINE      CODE     ---       #413
      00FF8DB3H   LINE      CODE     ---       #414
      ---         BLOCKEND  ---      ---       LVL=0
      00000B33H   SYMBOL    EDATA    BYTE      reg
      00000B34H   SYMBOL    EDATA    ---       dat
      00000B38H   SYMBOL    EDATA    DWORD     len
      00000D59H   SYMBOL    EDATA    BYTE      dat
      00000D5AH   SYMBOL    EDATA    BYTE      return_state
      00000D5BH   SYMBOL    EDATA    WORD      timeout_count
      00000C91H   SYMBOL    EDATA    ---       dat
      00000C97H   SYMBOL    EDATA    ---       dat
      00000C9DH   SYMBOL    EDATA    INT       acc_value
      00000C9FH   SYMBOL    EDATA    FLOAT     acc_data
      00000CA3H   SYMBOL    EDATA    INT       gyro_value
      00000CA5H   SYMBOL    EDATA    FLOAT     gyro_data
      00000D5DH   SYMBOL    EDATA    BYTE      val
      00000D5EH   SYMBOL    EDATA    BYTE      return_state
      00000D5FH   SYMBOL    EDATA    WORD      timeout_count

      ---         MODULE    ---      ---       SEEKFREE_IMU660RA
      000009E6H   PUBLIC    EDATA    INT       imu660ra_acc_x
      000009E8H   PUBLIC    EDATA    INT       imu660ra_acc_y
      000009EAH   PUBLIC    EDATA    INT       imu660ra_acc_z
      000009ECH   PUBLIC    EDATA    INT       imu660ra_gyro_x
      000009EEH   PUBLIC    EDATA    INT       imu660ra_gyro_y
      000009F0H   PUBLIC    EDATA    INT       imu660ra_gyro_z
      000000D0H   SFRSYM    DATA     BYTE      PSW
      0000009DH   SFRSYM    DATA     BYTE      IRCBAND
      00000097H   SFRSYM    DATA     BYTE      AUXR2
      000000EFH   SFRSYM    DATA     BYTE      AUXINTIF
      000000FDH   SFRSYM    DATA     BYTE      S4CON
      000000ACH   SFRSYM    DATA     BYTE      S3CON
      0000009AH   SFRSYM    DATA     BYTE      S2CON
      000000B7H   SFRSYM    DATA     BYTE      IPH
      000000CDH   SFRSYM    DATA     BYTE      SPSTAT
      000000DDH   SFRSYM    DATA     BYTE      T4T3M
      000000C1H   SFRSYM    DATA     BYTE      WDT_CONTR
      000000DFH   SFRSYM    DATA     BYTE      IP3
      000000F4H   SFRSYM    DATA     BYTE      USBCON
      000000B5H   SFRSYM    DATA     BYTE      IP2
L251 LINKER/LOCATER V4.66.93.0                                                        03/12/2024  22:09:15  PAGE 70


      000000FFH   SFRSYM    DATA     BYTE      RSTCFG
      000000F9H   SFRSYM    DATA     BYTE      LINICR
      0000008EH   SFRSYM    DATA     BYTE      AUXR
      000000AFH   SFRSYM    DATA     BYTE      IE2
      000000C0H.3 SFRSYM    DATA     BIT       P43
      000000C0H.2 SFRSYM    DATA     BIT       P42
      00000088H   SFRSYM    DATA     BYTE      TCON
      000000C0H.1 SFRSYM    DATA     BIT       P41
      00000098H   SFRSYM    DATA     BYTE      SCON
      000000C0H.0 SFRSYM    DATA     BIT       P40
      000000F1H   SFRSYM    DATA     BYTE      CANICR
      00000087H   SFRSYM    DATA     BYTE      PCON
      000000BCH   SFRSYM    DATA     BYTE      ADC_CONTR
      000000E7H   SFRSYM    DATA     BYTE      CMPCR2
      000000E6H   SFRSYM    DATA     BYTE      CMPCR1
      000000B8H   SFRSYM    DATA     BYTE      IP
      0000008FH   SFRSYM    DATA     BYTE      INTCLKO
      000000EEH   SFRSYM    DATA     BYTE      IP3H
      000000B6H   SFRSYM    DATA     BYTE      IP2H
      000000A8H   SFRSYM    DATA     BYTE      IE
      000000BBH   SFRSYM    DATA     BYTE      P_SW3
      000000BAH   SFRSYM    DATA     BYTE      P_SW2
      000000A2H   SFRSYM    DATA     BYTE      P_SW1
      000000CEH   SFRSYM    DATA     BYTE      SPCTL
      000000F8H   SFRSYM    DATA     BYTE      P7
      000000E8H   SFRSYM    DATA     BYTE      P6
      000000C8H   SFRSYM    DATA     BYTE      P5
      000000C0H   SFRSYM    DATA     BYTE      P4
      000000B0H   SFRSYM    DATA     BYTE      P3
      000000A0H   SFRSYM    DATA     BYTE      P2
      00000090H   SFRSYM    DATA     BYTE      P1
      00000080H   SFRSYM    DATA     BYTE      P0
      00FF8D11H   SYMBOL    CODE     ---       imu660ra_read_register
      00FF827BH   SYMBOL    CODE     ---       imu660ra_simspi_wr_byte
      00FF87EEH   SYMBOL    CODE     ---       imu660ra_simspi_r_reg_bytes

      00FF827BH   BLOCK     CODE     ---       LVL=0
      00000DD2H   SYMBOL    EDATA    BYTE      byte
      00FF827FH   BLOCK     CODE     NEAR LAB  LVL=1
      00000DD3H   SYMBOL    EDATA    BYTE      i
      ---         BLOCKEND  ---      ---       LVL=1
      00FF827BH   LINE      CODE     ---       #309
      00FF827FH   LINE      CODE     ---       #310
      00FF827FH   LINE      CODE     ---       #313
      00FF8286H   LINE      CODE     ---       #315
      00FF8294H   LINE      CODE     ---       #316
      00FF829EH   LINE      CODE     ---       #317
      00FF82A1H   LINE      CODE     ---       #318
      00FF82A4H   LINE      CODE     ---       #319
      00FF82A7H   LINE      CODE     ---       #320
      00FF82AAH   LINE      CODE     ---       #322
      00FF82B8H   LINE      CODE     ---       #323
      00FF82CFH   LINE      CODE     ---       #324
      00FF82D3H   LINE      CODE     ---       #325
      ---         BLOCKEND  ---      ---       LVL=0
      00000DD4H   SYMBOL    EDATA    BYTE      cmd
      00000DD5H   SYMBOL    EDATA    BYTE      val
      00000B3CH   SYMBOL    EDATA    BYTE      cmd
      00000B3DH   SYMBOL    EDATA    ---       dat_addr
      00000B41H   SYMBOL    EDATA    DWORD     len

      00FF87EEH   BLOCK     CODE     ---       LVL=0
      00000B45H   SYMBOL    EDATA    BYTE      cmd
      00000B46H   SYMBOL    EDATA    ---       val
      00000B4AH   SYMBOL    EDATA    DWORD     num
L251 LINKER/LOCATER V4.66.93.0                                                        03/12/2024  22:09:15  PAGE 71


      00FF87EEH   LINE      CODE     ---       #382
      00FF87FAH   LINE      CODE     ---       #384
      00FF8806H   LINE      CODE     ---       #385
      00FF880DH   LINE      CODE     ---       #387
      00FF880FH   LINE      CODE     ---       #389
      00FF8824H   LINE      CODE     ---       #390
      00FF8838H   LINE      CODE     ---       #391
      ---         BLOCKEND  ---      ---       LVL=0
      00000DD6H   SYMBOL    EDATA    BYTE      reg
      00000DD7H   SYMBOL    EDATA    BYTE      dat
      00000B4EH   SYMBOL    EDATA    BYTE      reg
      00000B4FH   SYMBOL    EDATA    ---       dat
      00000B53H   SYMBOL    EDATA    DWORD     len

      00FF8D11H   BLOCK     CODE     ---       LVL=0
      00000D97H   SYMBOL    EDATA    BYTE      reg
      00FF8D15H   BLOCK     CODE     NEAR LAB  LVL=1
      00000D98H   SYMBOL    EDATA    ---       dat
      ---         BLOCKEND  ---      ---       LVL=1
      00FF8D11H   LINE      CODE     ---       #432
      00FF8D15H   LINE      CODE     ---       #433
      00FF8D15H   LINE      CODE     ---       #435
      00FF8D18H   LINE      CODE     ---       #436
      00FF8D2BH   LINE      CODE     ---       #437
      00FF8D2EH   LINE      CODE     ---       #438
      00FF8D32H   LINE      CODE     ---       #439
      ---         BLOCKEND  ---      ---       LVL=0
      00000B57H   SYMBOL    EDATA    BYTE      reg
      00000B58H   SYMBOL    EDATA    ---       dat
      00000B5CH   SYMBOL    EDATA    DWORD     len
      00000D61H   SYMBOL    EDATA    BYTE      dat
      00000D62H   SYMBOL    EDATA    BYTE      return_state
      00000D63H   SYMBOL    EDATA    WORD      timeout_count
      00000C4BH   SYMBOL    EDATA    ---       dat
      00000C52H   SYMBOL    EDATA    ---       dat
      00000CA9H   SYMBOL    EDATA    INT       acc_value
      00000CABH   SYMBOL    EDATA    FLOAT     acc_dat
      00000CAFH   SYMBOL    EDATA    INT       gyro_value
      00000CB1H   SYMBOL    EDATA    FLOAT     gyro_dat
      00000E00H   SYMBOL    EDATA    BYTE      return_state

      ---         MODULE    ---      ---       SEEKFREE_IMU963RA
      0000088BH   PUBLIC    EDATA    INT       imu963ra_acc_x
      0000088DH   PUBLIC    EDATA    INT       imu963ra_acc_y
      0000088FH   PUBLIC    EDATA    INT       imu963ra_acc_z
      00000891H   PUBLIC    EDATA    INT       imu963ra_mag_x
      00000893H   PUBLIC    EDATA    INT       imu963ra_mag_y
      00000895H   PUBLIC    EDATA    INT       imu963ra_mag_z
      00000897H   PUBLIC    EDATA    INT       imu963ra_gyro_x
      00000899H   PUBLIC    EDATA    INT       imu963ra_gyro_y
      0000089BH   PUBLIC    EDATA    INT       imu963ra_gyro_z
      000000D0H   SFRSYM    DATA     BYTE      PSW
      0000009DH   SFRSYM    DATA     BYTE      IRCBAND
      00000097H   SFRSYM    DATA     BYTE      AUXR2
      000000EFH   SFRSYM    DATA     BYTE      AUXINTIF
      000000FDH   SFRSYM    DATA     BYTE      S4CON
      000000ACH   SFRSYM    DATA     BYTE      S3CON
      0000009AH   SFRSYM    DATA     BYTE      S2CON
      000000B7H   SFRSYM    DATA     BYTE      IPH
      000000CDH   SFRSYM    DATA     BYTE      SPSTAT
      000000DDH   SFRSYM    DATA     BYTE      T4T3M
      000000C1H   SFRSYM    DATA     BYTE      WDT_CONTR
      000000DFH   SFRSYM    DATA     BYTE      IP3
      000000F4H   SFRSYM    DATA     BYTE      USBCON
      000000B5H   SFRSYM    DATA     BYTE      IP2
L251 LINKER/LOCATER V4.66.93.0                                                        03/12/2024  22:09:15  PAGE 72


      000000FFH   SFRSYM    DATA     BYTE      RSTCFG
      000000F9H   SFRSYM    DATA     BYTE      LINICR
      0000008EH   SFRSYM    DATA     BYTE      AUXR
      000000AFH   SFRSYM    DATA     BYTE      IE2
      000000C0H.3 SFRSYM    DATA     BIT       P43
      000000C0H.2 SFRSYM    DATA     BIT       P42
      00000088H   SFRSYM    DATA     BYTE      TCON
      000000C0H.1 SFRSYM    DATA     BIT       P41
      00000098H   SFRSYM    DATA     BYTE      SCON
      000000C0H.0 SFRSYM    DATA     BIT       P40
      000000F1H   SFRSYM    DATA     BYTE      CANICR
      00000087H   SFRSYM    DATA     BYTE      PCON
      000000BCH   SFRSYM    DATA     BYTE      ADC_CONTR
      000000E7H   SFRSYM    DATA     BYTE      CMPCR2
      000000E6H   SFRSYM    DATA     BYTE      CMPCR1
      000000B8H   SFRSYM    DATA     BYTE      IP
      0000008FH   SFRSYM    DATA     BYTE      INTCLKO
      000000EEH   SFRSYM    DATA     BYTE      IP3H
      000000B6H   SFRSYM    DATA     BYTE      IP2H
      000000A8H   SFRSYM    DATA     BYTE      IE
      000000BBH   SFRSYM    DATA     BYTE      P_SW3
      000000BAH   SFRSYM    DATA     BYTE      P_SW2
      000000A2H   SFRSYM    DATA     BYTE      P_SW1
      000000CEH   SFRSYM    DATA     BYTE      SPCTL
      000000F8H   SFRSYM    DATA     BYTE      P7
      000000E8H   SFRSYM    DATA     BYTE      P6
      000000C8H   SFRSYM    DATA     BYTE      P5
      000000C0H   SFRSYM    DATA     BYTE      P4
      000000B0H   SFRSYM    DATA     BYTE      P3
      000000A0H   SFRSYM    DATA     BYTE      P2
      00000090H   SFRSYM    DATA     BYTE      P1
      00000080H   SFRSYM    DATA     BYTE      P0
      00FF82D4H   SYMBOL    CODE     ---       imu963ra_simspi_wr_byte
      00FF7E99H   SYMBOL    CODE     ---       imu963ra_read_mag_register
      00FF8CEEH   SYMBOL    CODE     ---       imu963ra_read_acc_gyro_register
      00FF8B2EH   SYMBOL    CODE     ---       imu963ra_simspi_r_reg_byte
      00FF8E42H   SYMBOL    CODE     ---       imu963ra_write_acc_gyro_register
      00FF8D75H   SYMBOL    CODE     ---       imu963ra_simspi_w_reg_byte

      00FF82D4H   BLOCK     CODE     ---       LVL=0
      00000DD8H   SYMBOL    EDATA    BYTE      byte
      00FF82D8H   BLOCK     CODE     NEAR LAB  LVL=1
      00000DD9H   SYMBOL    EDATA    BYTE      i
      ---         BLOCKEND  ---      ---       LVL=1
      00FF82D4H   LINE      CODE     ---       #344
      00FF82D8H   LINE      CODE     ---       #345
      00FF82D8H   LINE      CODE     ---       #348
      00FF82DFH   LINE      CODE     ---       #350
      00FF82EDH   LINE      CODE     ---       #351
      00FF82F7H   LINE      CODE     ---       #352
      00FF82FAH   LINE      CODE     ---       #353
      00FF82FDH   LINE      CODE     ---       #355
      00FF8300H   LINE      CODE     ---       #356
      00FF8303H   LINE      CODE     ---       #357
      00FF8311H   LINE      CODE     ---       #358
      00FF8328H   LINE      CODE     ---       #359
      00FF832CH   LINE      CODE     ---       #360
      ---         BLOCKEND  ---      ---       LVL=0

      00FF8D75H   BLOCK     CODE     ---       LVL=0
      00000DDAH   SYMBOL    EDATA    BYTE      cmd
      00000DDBH   SYMBOL    EDATA    BYTE      val
      00FF8D75H   LINE      CODE     ---       #368
      00FF8D7DH   LINE      CODE     ---       #370
      00FF8D80H   LINE      CODE     ---       #371
L251 LINKER/LOCATER V4.66.93.0                                                        03/12/2024  22:09:15  PAGE 73


      00FF8D84H   LINE      CODE     ---       #372
      00FF8D8BH   LINE      CODE     ---       #373
      00FF8D92H   LINE      CODE     ---       #374
      00FF8D95H   LINE      CODE     ---       #375
      ---         BLOCKEND  ---      ---       LVL=0

      00FF8B2EH   BLOCK     CODE     ---       LVL=0
      00000D1CH   SYMBOL    EDATA    BYTE      cmd
      00000D1DH   SYMBOL    EDATA    ---       val
      00FF8B2EH   LINE      CODE     ---       #406
      00FF8B36H   LINE      CODE     ---       #408
      00FF8B39H   LINE      CODE     ---       #409
      00FF8B45H   LINE      CODE     ---       #410
      00FF8B4CH   LINE      CODE     ---       #411
      00FF8B57H   LINE      CODE     ---       #412
      00FF8B5AH   LINE      CODE     ---       #413
      ---         BLOCKEND  ---      ---       LVL=0
      00000B60H   SYMBOL    EDATA    BYTE      cmd
      00000B61H   SYMBOL    EDATA    ---       val
      00000B65H   SYMBOL    EDATA    DWORD     num

      00FF8E42H   BLOCK     CODE     ---       LVL=0
      00000DDCH   SYMBOL    EDATA    BYTE      reg
      00000DDDH   SYMBOL    EDATA    BYTE      dat
      00FF8E42H   LINE      CODE     ---       #445
      00FF8E4AH   LINE      CODE     ---       #447
      00FF8E4DH   LINE      CODE     ---       #448
      00FF8E58H   LINE      CODE     ---       #450
      00FF8E5BH   LINE      CODE     ---       #451
      ---         BLOCKEND  ---      ---       LVL=0

      00FF8CEEH   BLOCK     CODE     ---       LVL=0
      00000DDEH   SYMBOL    EDATA    BYTE      reg
      00FF8CF2H   BLOCK     CODE     NEAR LAB  LVL=1
      00000DDFH   SYMBOL    EDATA    BYTE      dat
      ---         BLOCKEND  ---      ---       LVL=1
      00FF8CEEH   LINE      CODE     ---       #460
      00FF8CF2H   LINE      CODE     ---       #461
      00FF8CF2H   LINE      CODE     ---       #462
      00FF8CF7H   LINE      CODE     ---       #463
      00FF8CFAH   LINE      CODE     ---       #464
      00FF8D09H   LINE      CODE     ---       #465
      00FF8D0CH   LINE      CODE     ---       #466
      00FF8D10H   LINE      CODE     ---       #467
      ---         BLOCKEND  ---      ---       LVL=0
      00000B69H   SYMBOL    EDATA    BYTE      reg
      00000B6AH   SYMBOL    EDATA    ---       dat
      00000B6EH   SYMBOL    EDATA    DWORD     len
      00000CB5H   SYMBOL    EDATA    BYTE      addr
      00000CB6H   SYMBOL    EDATA    BYTE      reg
      00000CB7H   SYMBOL    EDATA    BYTE      dat
      00000CB8H   SYMBOL    EDATA    BYTE      return_state
      00000CB9H   SYMBOL    EDATA    WORD      timeout_count

      00FF7E99H   BLOCK     CODE     ---       LVL=0
      00000D65H   SYMBOL    EDATA    BYTE      addr
      00000D66H   SYMBOL    EDATA    BYTE      reg
      00FF7EA1H   BLOCK     CODE     NEAR LAB  LVL=1
      00000D67H   SYMBOL    EDATA    WORD      timeout_count
      ---         BLOCKEND  ---      ---       LVL=1
      00FF7E99H   LINE      CODE     ---       #529
      00FF7EA1H   LINE      CODE     ---       #530
      00FF7EA1H   LINE      CODE     ---       #531
      00FF7EA7H   LINE      CODE     ---       #533
      00FF7EB1H   LINE      CODE     ---       #534
L251 LINKER/LOCATER V4.66.93.0                                                        03/12/2024  22:09:15  PAGE 74


      00FF7EBFH   LINE      CODE     ---       #535
      00FF7EC8H   LINE      CODE     ---       #536
      00FF7ED0H   LINE      CODE     ---       #537
      00FF7ED8H   LINE      CODE     ---       #540
      00FF7EDAH   LINE      CODE     ---       #542
      00FF7EF0H   LINE      CODE     ---       #544
      00FF7EF0H   LINE      CODE     ---       #545
      00FF7EF0H   LINE      CODE     ---       #546
      00FF7EF7H   LINE      CODE     ---       #547
      00FF7EFFH   LINE      CODE     ---       #549
      00FF7F04H   LINE      CODE     ---       #550
      ---         BLOCKEND  ---      ---       LVL=0
      00000DE0H   SYMBOL    EDATA    BYTE      addr
      00000DE1H   SYMBOL    EDATA    BYTE      reg
      00000D69H   SYMBOL    EDATA    BYTE      return_state
      00000D6AH   SYMBOL    EDATA    BYTE      dat
      00000D6BH   SYMBOL    EDATA    WORD      timeout_count
      00000D6DH   SYMBOL    EDATA    BYTE      return_state
      00000D6EH   SYMBOL    EDATA    BYTE      dat
      00000D6FH   SYMBOL    EDATA    WORD      timeout_count
      00000CBBH   SYMBOL    EDATA    ---       dat
      00000CC1H   SYMBOL    EDATA    ---       dat
      00000C59H   SYMBOL    EDATA    BYTE      temp_status
      00000C5AH   SYMBOL    EDATA    ---       dat
      00000CC7H   SYMBOL    EDATA    INT       acc_value
      00000CC9H   SYMBOL    EDATA    FLOAT     acc_dat
      00000CCDH   SYMBOL    EDATA    INT       gyro_value
      00000CCFH   SYMBOL    EDATA    FLOAT     gyro_dat
      00000CD3H   SYMBOL    EDATA    INT       mag_value
      00000CD5H   SYMBOL    EDATA    FLOAT     mag_dat
      00000E01H   SYMBOL    EDATA    BYTE      return_state

      ---         MODULE    ---      ---       SEEKFREE_IPS114_SPI
      00FF8BDCH   PUBLIC    CODE     ---       ips114_writedata_16bit
      00FF6D83H   PUBLIC    CODE     ---       ips114_showfloat
      00FF7571H   PUBLIC    CODE     ---       ips114_showchar
      00FF8109H   PUBLIC    CODE     ---       ips114_clear
      00FF8431H   PUBLIC    CODE     ---       ips114_writeDatai_16bit_simspi
      00FF81C5H   PUBLIC    CODE     ---       ips114_showstr
      00FF870AH   PUBLIC    CODE     ---       ips114_writeIndex_simspi
      00FF8EFEH   PUBLIC    CODE     ---       ips114_writeIndex
      00FF8F13H   PUBLIC    CODE     ---       ips114_writeData
      00FF84DAH   PUBLIC    CODE     ---       ips114_set_region
      00FF66B1H   PUBLIC    CODE     ---       ips114_init
      00000557H   PUBLIC    EDATA    BYTE      ?ips114_showfloat_simspi?BYTE
      00000587H   PUBLIC    EDATA    BYTE      ?ips114_showfloat?BYTE
      000000D0H   SFRSYM    DATA     BYTE      PSW
      0000009DH   SFRSYM    DATA     BYTE      IRCBAND
      00000097H   SFRSYM    DATA     BYTE      AUXR2
      000000EFH   SFRSYM    DATA     BYTE      AUXINTIF
      000000FDH   SFRSYM    DATA     BYTE      S4CON
      000000ACH   SFRSYM    DATA     BYTE      S3CON
      0000009AH   SFRSYM    DATA     BYTE      S2CON
      000000B7H   SFRSYM    DATA     BYTE      IPH
      000000CDH   SFRSYM    DATA     BYTE      SPSTAT
      000000DDH   SFRSYM    DATA     BYTE      T4T3M
      000000C1H   SFRSYM    DATA     BYTE      WDT_CONTR
      000000DFH   SFRSYM    DATA     BYTE      IP3
      000000F4H   SFRSYM    DATA     BYTE      USBCON
      000000B5H   SFRSYM    DATA     BYTE      IP2
      000000FFH   SFRSYM    DATA     BYTE      RSTCFG
      000000F9H   SFRSYM    DATA     BYTE      LINICR
      0000008EH   SFRSYM    DATA     BYTE      AUXR
      000000AFH   SFRSYM    DATA     BYTE      IE2
      000000F8H.3 SFRSYM    DATA     BIT       P73
L251 LINKER/LOCATER V4.66.93.0                                                        03/12/2024  22:09:15  PAGE 75


      000000A0H.7 SFRSYM    DATA     BIT       P27
      000000A0H.5 SFRSYM    DATA     BIT       P25
      000000A0H.4 SFRSYM    DATA     BIT       P24
      000000C0H.2 SFRSYM    DATA     BIT       P42
      00000088H   SFRSYM    DATA     BYTE      TCON
      000000A0H.3 SFRSYM    DATA     BIT       P23
      00000098H   SFRSYM    DATA     BYTE      SCON
      000000A0H.2 SFRSYM    DATA     BIT       P22
      000000A0H.1 SFRSYM    DATA     BIT       P21
      000000A0H.0 SFRSYM    DATA     BIT       P20
      000000F1H   SFRSYM    DATA     BYTE      CANICR
      00000087H   SFRSYM    DATA     BYTE      PCON
      000000BCH   SFRSYM    DATA     BYTE      ADC_CONTR
      000000E7H   SFRSYM    DATA     BYTE      CMPCR2
      000000E6H   SFRSYM    DATA     BYTE      CMPCR1
      000000B8H   SFRSYM    DATA     BYTE      IP
      0000008FH   SFRSYM    DATA     BYTE      INTCLKO
      000000EEH   SFRSYM    DATA     BYTE      IP3H
      000000B6H   SFRSYM    DATA     BYTE      IP2H
      000000A8H   SFRSYM    DATA     BYTE      IE
      000000BBH   SFRSYM    DATA     BYTE      P_SW3
      000000BAH   SFRSYM    DATA     BYTE      P_SW2
      000000A2H   SFRSYM    DATA     BYTE      P_SW1
      000000CEH   SFRSYM    DATA     BYTE      SPCTL
      000000F8H   SFRSYM    DATA     BYTE      P7
      000000E8H   SFRSYM    DATA     BYTE      P6
      000000C8H   SFRSYM    DATA     BYTE      P5
      000000C0H   SFRSYM    DATA     BYTE      P4
      000000B0H   SFRSYM    DATA     BYTE      P3
      000000A0H   SFRSYM    DATA     BYTE      P2
      00000090H   SFRSYM    DATA     BYTE      P1
      00000080H   SFRSYM    DATA     BYTE      P0

      00FF870AH   BLOCK     CODE     ---       LVL=0
      00000DE2H   SYMBOL    EDATA    BYTE      dat
      00FF870EH   BLOCK     CODE     NEAR LAB  LVL=1
      00000DE3H   SYMBOL    EDATA    BYTE      i
      ---         BLOCKEND  ---      ---       LVL=1
      00FF870AH   LINE      CODE     ---       #61
      00FF870EH   LINE      CODE     ---       #62
      00FF870EH   LINE      CODE     ---       #63
      00FF8714H   LINE      CODE     ---       #64
      00FF8717H   LINE      CODE     ---       #65
      00FF871AH   LINE      CODE     ---       #67
      00FF871DH   LINE      CODE     ---       #69
      00FF871FH   LINE      CODE     ---       #71
      00FF872BH   LINE      CODE     ---       #72
      00FF872EH   LINE      CODE     ---       #73
      00FF8731H   LINE      CODE     ---       #75
      00FF8734H   LINE      CODE     ---       #76
      00FF873EH   LINE      CODE     ---       #77
      00FF8752H   LINE      CODE     ---       #78
      00FF8755H   LINE      CODE     ---       #79
      ---         BLOCKEND  ---      ---       LVL=0
      00000DE4H   SYMBOL    EDATA    BYTE      dat
      00000DE5H   SYMBOL    EDATA    BYTE      i

      00FF8431H   BLOCK     CODE     ---       LVL=0
      00000D9AH   SYMBOL    EDATA    WORD      dat
      00FF8435H   BLOCK     CODE     NEAR LAB  LVL=1
      00000D9CH   SYMBOL    EDATA    BYTE      i
      ---         BLOCKEND  ---      ---       LVL=1
      00FF8431H   LINE      CODE     ---       #115
      00FF8435H   LINE      CODE     ---       #116
      00FF8435H   LINE      CODE     ---       #117
L251 LINKER/LOCATER V4.66.93.0                                                        03/12/2024  22:09:15  PAGE 76


      00FF843BH   LINE      CODE     ---       #118
      00FF843EH   LINE      CODE     ---       #119
      00FF8441H   LINE      CODE     ---       #120
      00FF8444H   LINE      CODE     ---       #121
      00FF8446H   LINE      CODE     ---       #123
      00FF845BH   LINE      CODE     ---       #124
      00FF845EH   LINE      CODE     ---       #125
      00FF8461H   LINE      CODE     ---       #127
      00FF8464H   LINE      CODE     ---       #128
      00FF846EH   LINE      CODE     ---       #129
      00FF8482H   LINE      CODE     ---       #130
      00FF8485H   LINE      CODE     ---       #131
      ---         BLOCKEND  ---      ---       LVL=0
      00000BFCH   SYMBOL    EDATA    WORD      x1
      00000BFEH   SYMBOL    EDATA    WORD      y1
      00000C00H   SYMBOL    EDATA    WORD      x2
      00000C02H   SYMBOL    EDATA    WORD      y2
      00000CD9H   SYMBOL    EDATA    WORD      color
      00000CDBH   SYMBOL    EDATA    WORD      i
      00000CDDH   SYMBOL    EDATA    WORD      j
      00000CDFH   SYMBOL    EDATA    WORD      x
      00000CE1H   SYMBOL    EDATA    WORD      y
      00000CE3H   SYMBOL    EDATA    WORD      color
      00000C04H   SYMBOL    EDATA    WORD      x
      00000C06H   SYMBOL    EDATA    WORD      y
      00000C08H   SYMBOL    EDATA    CHAR      dat
      00000C09H   SYMBOL    EDATA    BYTE      i
      00000C0AH   SYMBOL    EDATA    BYTE      j
      00000C0BH   SYMBOL    EDATA    BYTE      temp
      00000AD6H   SYMBOL    EDATA    WORD      x
      00000AD8H   SYMBOL    EDATA    WORD      y
      00000ADAH   SYMBOL    EDATA    ---       dat
      00000ADEH   SYMBOL    EDATA    WORD      j
      00000B72H   SYMBOL    EDATA    WORD      x
      00000B74H   SYMBOL    EDATA    WORD      y
      00000B76H   SYMBOL    EDATA    CHAR      dat
      00000B77H   SYMBOL    EDATA    ---       a
      00000B7AH   SYMBOL    EDATA    BYTE      i
      00000B7BH   SYMBOL    EDATA    WORD      x
      00000B7DH   SYMBOL    EDATA    WORD      y
      00000B7FH   SYMBOL    EDATA    BYTE      dat
      00000B80H   SYMBOL    EDATA    ---       a
      00000B83H   SYMBOL    EDATA    BYTE      i
      000009F2H   SYMBOL    EDATA    WORD      x
      000009F4H   SYMBOL    EDATA    WORD      y
      000009F6H   SYMBOL    EDATA    INT       dat
      000009F8H   SYMBOL    EDATA    ---       a
      000009FDH   SYMBOL    EDATA    BYTE      i
      000009FEH   SYMBOL    EDATA    WORD      x
      00000A00H   SYMBOL    EDATA    WORD      y
      00000A02H   SYMBOL    EDATA    WORD      dat
      00000A04H   SYMBOL    EDATA    ---       a
      00000A09H   SYMBOL    EDATA    BYTE      i
      0000069EH   SYMBOL    EDATA    WORD      x
      000006A0H   SYMBOL    EDATA    WORD      y
      000006A2H   SYMBOL    EDATA    LONG      dat
      000006A6H   SYMBOL    EDATA    BYTE      num
      000006A7H   SYMBOL    EDATA    ---       buff
      000006C9H   SYMBOL    EDATA    BYTE      length
      00000557H   SYMBOL    EDATA    WORD      x
      00000559H   SYMBOL    EDATA    WORD      y
      0000055BH   SYMBOL    EDATA    FLOAT     dat
      0000055FH   SYMBOL    EDATA    BYTE      num
      00000560H   SYMBOL    EDATA    BYTE      pointnum
      00000561H   SYMBOL    EDATA    BYTE      length
L251 LINKER/LOCATER V4.66.93.0                                                        03/12/2024  22:09:15  PAGE 77


      00000562H   SYMBOL    EDATA    ---       buff
      00000584H   SYMBOL    EDATA    CHAR      start
      00000585H   SYMBOL    EDATA    CHAR      end
      00000586H   SYMBOL    EDATA    CHAR      point

      00FF8EFEH   BLOCK     CODE     ---       LVL=0
      00000E02H   SYMBOL    EDATA    BYTE      dat
      00FF8EFEH   LINE      CODE     ---       #594
      00FF8F02H   LINE      CODE     ---       #596
      00FF8F05H   LINE      CODE     ---       #597
      00FF8F08H   LINE      CODE     ---       #599
      00FF8F0FH   LINE      CODE     ---       #600
      00FF8F12H   LINE      CODE     ---       #601
      ---         BLOCKEND  ---      ---       LVL=0

      00FF8F13H   BLOCK     CODE     ---       LVL=0
      00000E03H   SYMBOL    EDATA    BYTE      dat
      00FF8F13H   LINE      CODE     ---       #610
      00FF8F17H   LINE      CODE     ---       #612
      00FF8F1AH   LINE      CODE     ---       #613
      00FF8F1DH   LINE      CODE     ---       #615
      00FF8F24H   LINE      CODE     ---       #616
      00FF8F27H   LINE      CODE     ---       #617
      ---         BLOCKEND  ---      ---       LVL=0

      00FF8BDCH   BLOCK     CODE     ---       LVL=0
      00000D71H   SYMBOL    EDATA    WORD      dat
      00FF8BE0H   BLOCK     CODE     NEAR LAB  LVL=1
      00000D73H   SYMBOL    EDATA    ---       dat1
      ---         BLOCKEND  ---      ---       LVL=1
      00FF8BDCH   LINE      CODE     ---       #626
      00FF8BE0H   LINE      CODE     ---       #627
      00FF8BE0H   LINE      CODE     ---       #629
      00FF8BE6H   LINE      CODE     ---       #630
      00FF8BEEH   LINE      CODE     ---       #631
      00FF8BF1H   LINE      CODE     ---       #632
      00FF8BF4H   LINE      CODE     ---       #633
      00FF8BFBH   LINE      CODE     ---       #634
      00FF8C02H   LINE      CODE     ---       #635
      00FF8C05H   LINE      CODE     ---       #636
      ---         BLOCKEND  ---      ---       LVL=0

      00FF66B1H   BLOCK     CODE     ---       LVL=0
      00FF66B1H   LINE      CODE     ---       #644
      00FF66B1H   LINE      CODE     ---       #646
      00FF66D1H   LINE      CODE     ---       #648
      00FF66D4H   LINE      CODE     ---       #649
      00FF66D7H   LINE      CODE     ---       #650
      00FF66DAH   LINE      CODE     ---       #652
      00FF66E1H   LINE      CODE     ---       #654
      00FF66E4H   LINE      CODE     ---       #655
      00FF66EBH   LINE      CODE     ---       #657
      00FF66F0H   LINE      CODE     ---       #666
      00FF66F5H   LINE      CODE     ---       #669
      00FF66FAH   LINE      CODE     ---       #670
      00FF66FFH   LINE      CODE     ---       #672
      00FF6704H   LINE      CODE     ---       #673
      00FF6709H   LINE      CODE     ---       #674
      00FF670EH   LINE      CODE     ---       #675
      00FF6712H   LINE      CODE     ---       #676
      00FF6717H   LINE      CODE     ---       #677
      00FF671CH   LINE      CODE     ---       #679
      00FF6721H   LINE      CODE     ---       #680
      00FF6726H   LINE      CODE     ---       #682
      00FF672BH   LINE      CODE     ---       #683
L251 LINKER/LOCATER V4.66.93.0                                                        03/12/2024  22:09:15  PAGE 78


      00FF6730H   LINE      CODE     ---       #685
      00FF6735H   LINE      CODE     ---       #686
      00FF673AH   LINE      CODE     ---       #688
      00FF673FH   LINE      CODE     ---       #689
      00FF6744H   LINE      CODE     ---       #691
      00FF6749H   LINE      CODE     ---       #692
      00FF674EH   LINE      CODE     ---       #694
      00FF6753H   LINE      CODE     ---       #695
      00FF6758H   LINE      CODE     ---       #697
      00FF675DH   LINE      CODE     ---       #698
      00FF6762H   LINE      CODE     ---       #700
      00FF6767H   LINE      CODE     ---       #701
      00FF676CH   LINE      CODE     ---       #702
      00FF6771H   LINE      CODE     ---       #704
      00FF6776H   LINE      CODE     ---       #705
      00FF677BH   LINE      CODE     ---       #706
      00FF6780H   LINE      CODE     ---       #707
      00FF6785H   LINE      CODE     ---       #708
      00FF678AH   LINE      CODE     ---       #709
      00FF678FH   LINE      CODE     ---       #710
      00FF6794H   LINE      CODE     ---       #711
      00FF6799H   LINE      CODE     ---       #712
      00FF679EH   LINE      CODE     ---       #713
      00FF67A3H   LINE      CODE     ---       #714
      00FF67A8H   LINE      CODE     ---       #715
      00FF67ADH   LINE      CODE     ---       #716
      00FF67B2H   LINE      CODE     ---       #717
      00FF67B7H   LINE      CODE     ---       #718
      00FF67BCH   LINE      CODE     ---       #720
      00FF67C1H   LINE      CODE     ---       #721
      00FF67C6H   LINE      CODE     ---       #722
      00FF67CBH   LINE      CODE     ---       #723
      00FF67D0H   LINE      CODE     ---       #724
      00FF67D5H   LINE      CODE     ---       #725
      00FF67DAH   LINE      CODE     ---       #726
      00FF67DFH   LINE      CODE     ---       #727
      00FF67E4H   LINE      CODE     ---       #728
      00FF67E9H   LINE      CODE     ---       #729
      00FF67EEH   LINE      CODE     ---       #730
      00FF67F3H   LINE      CODE     ---       #731
      00FF67F8H   LINE      CODE     ---       #732
      00FF67FDH   LINE      CODE     ---       #733
      00FF6802H   LINE      CODE     ---       #734
      00FF6807H   LINE      CODE     ---       #736
      00FF680CH   LINE      CODE     ---       #738
      00FF6811H   LINE      CODE     ---       #739
      00FF6818H   LINE      CODE     ---       #741
      00FF681DH   LINE      CODE     ---       #742
      00FF6824H   LINE      CODE     ---       #743
      ---         BLOCKEND  ---      ---       LVL=0

      00FF84DAH   BLOCK     CODE     ---       LVL=0
      00000C0CH   SYMBOL    EDATA    WORD      x1
      00000C0EH   SYMBOL    EDATA    WORD      y1
      00000C10H   SYMBOL    EDATA    WORD      x2
      00000C12H   SYMBOL    EDATA    WORD      y2
      00FF84DAH   LINE      CODE     ---       #747
      00FF84EAH   LINE      CODE     ---       #781
      00FF84EFH   LINE      CODE     ---       #782
      00FF84FCH   LINE      CODE     ---       #783
      00FF8509H   LINE      CODE     ---       #784
      00FF850EH   LINE      CODE     ---       #785
      00FF851BH   LINE      CODE     ---       #786
      00FF8528H   LINE      CODE     ---       #787
      00FF852DH   LINE      CODE     ---       #790
L251 LINKER/LOCATER V4.66.93.0                                                        03/12/2024  22:09:15  PAGE 79


      ---         BLOCKEND  ---      ---       LVL=0

      00FF8109H   BLOCK     CODE     ---       LVL=0
      00000CE5H   SYMBOL    EDATA    WORD      color
      00FF810DH   BLOCK     CODE     NEAR LAB  LVL=1
      00000CE7H   SYMBOL    EDATA    WORD      i
      00000CE9H   SYMBOL    EDATA    WORD      j
      ---         BLOCKEND  ---      ---       LVL=1
      00FF8109H   LINE      CODE     ---       #799
      00FF810DH   LINE      CODE     ---       #800
      00FF810DH   LINE      CODE     ---       #802
      00FF811CH   LINE      CODE     ---       #803
      00FF8124H   LINE      CODE     ---       #805
      00FF812CH   LINE      CODE     ---       #807
      00FF8133H   LINE      CODE     ---       #808
      00FF814DH   LINE      CODE     ---       #809
      00FF8167H   LINE      CODE     ---       #810
      ---         BLOCKEND  ---      ---       LVL=0
      00000CEBH   SYMBOL    EDATA    WORD      x
      00000CEDH   SYMBOL    EDATA    WORD      y
      00000CEFH   SYMBOL    EDATA    WORD      color

      00FF7571H   BLOCK     CODE     ---       LVL=0
      00000C14H   SYMBOL    EDATA    WORD      x
      00000C16H   SYMBOL    EDATA    WORD      y
      00000C18H   SYMBOL    EDATA    CHAR      dat
      00FF757DH   BLOCK     CODE     NEAR LAB  LVL=1
      00000C19H   SYMBOL    EDATA    BYTE      i
      00000C1AH   SYMBOL    EDATA    BYTE      j
      00000C1BH   SYMBOL    EDATA    BYTE      temp
      ---         BLOCKEND  ---      ---       LVL=1
      00FF7571H   LINE      CODE     ---       #838
      00FF757DH   LINE      CODE     ---       #839
      00FF757DH   LINE      CODE     ---       #843
      00FF7585H   LINE      CODE     ---       #845
      00FF75AEH   LINE      CODE     ---       #846
      00FF75D6H   LINE      CODE     ---       #847
      00FF75DDH   LINE      CODE     ---       #849
      00FF75E4H   LINE      CODE     ---       #851
      00FF75EBH   LINE      CODE     ---       #852
      00FF75EDH   LINE      CODE     ---       #853
      00FF75F4H   LINE      CODE     ---       #854
      00FF75FEH   LINE      CODE     ---       #855
      00FF7615H   LINE      CODE     ---       #856
      00FF762FH   LINE      CODE     ---       #857
      ---         BLOCKEND  ---      ---       LVL=0

      00FF81C5H   BLOCK     CODE     ---       LVL=0
      00000AE0H   SYMBOL    EDATA    WORD      x
      00000AE2H   SYMBOL    EDATA    WORD      y
      00000AE4H   SYMBOL    EDATA    ---       dat
      00FF81D1H   BLOCK     CODE     NEAR LAB  LVL=1
      00000AE8H   SYMBOL    EDATA    WORD      j
      ---         BLOCKEND  ---      ---       LVL=1
      00FF81C5H   LINE      CODE     ---       #868
      00FF81D1H   LINE      CODE     ---       #869
      00FF81D1H   LINE      CODE     ---       #872
      00FF81D7H   LINE      CODE     ---       #873
      00FF81D9H   LINE      CODE     ---       #875
      00FF8203H   LINE      CODE     ---       #876
      00FF8211H   LINE      CODE     ---       #877
      00FF8221H   LINE      CODE     ---       #878
      ---         BLOCKEND  ---      ---       LVL=0
      00000B84H   SYMBOL    EDATA    WORD      x
      00000B86H   SYMBOL    EDATA    WORD      y
L251 LINKER/LOCATER V4.66.93.0                                                        03/12/2024  22:09:15  PAGE 80


      00000B88H   SYMBOL    EDATA    CHAR      dat
      00000B89H   SYMBOL    EDATA    ---       a
      00000B8CH   SYMBOL    EDATA    BYTE      i
      00000B8DH   SYMBOL    EDATA    WORD      x
      00000B8FH   SYMBOL    EDATA    WORD      y
      00000B91H   SYMBOL    EDATA    BYTE      dat
      00000B92H   SYMBOL    EDATA    ---       a
      00000B95H   SYMBOL    EDATA    BYTE      i
      00000A0AH   SYMBOL    EDATA    WORD      x
      00000A0CH   SYMBOL    EDATA    WORD      y
      00000A0EH   SYMBOL    EDATA    INT       dat
      00000A10H   SYMBOL    EDATA    ---       a
      00000A15H   SYMBOL    EDATA    BYTE      i
      00000A16H   SYMBOL    EDATA    WORD      x
      00000A18H   SYMBOL    EDATA    WORD      y
      00000A1AH   SYMBOL    EDATA    WORD      dat
      00000A1CH   SYMBOL    EDATA    ---       a
      00000A21H   SYMBOL    EDATA    BYTE      i
      000006CAH   SYMBOL    EDATA    WORD      x
      000006CCH   SYMBOL    EDATA    WORD      y
      000006CEH   SYMBOL    EDATA    LONG      dat
      000006D2H   SYMBOL    EDATA    BYTE      num
      000006D3H   SYMBOL    EDATA    ---       buff
      000006F5H   SYMBOL    EDATA    BYTE      length

      00FF6D83H   BLOCK     CODE     ---       LVL=0
      00000587H   SYMBOL    EDATA    WORD      x
      00000589H   SYMBOL    EDATA    WORD      y
      0000058BH   SYMBOL    EDATA    FLOAT     dat
      0000058FH   SYMBOL    EDATA    BYTE      num
      00000590H   SYMBOL    EDATA    BYTE      pointnum
      00FF6D93H   BLOCK     CODE     NEAR LAB  LVL=1
      00000591H   SYMBOL    EDATA    BYTE      length
      00000592H   SYMBOL    EDATA    ---       buff
      000005B4H   SYMBOL    EDATA    CHAR      start
      000005B5H   SYMBOL    EDATA    CHAR      end
      000005B6H   SYMBOL    EDATA    CHAR      point
      ---         BLOCKEND  ---      ---       LVL=1
      00FF6D83H   LINE      CODE     ---       #1051
      00FF6D93H   LINE      CODE     ---       #1052
      00FF6D93H   LINE      CODE     ---       #1057
      00FF6DA3H   LINE      CODE     ---       #1058
      00FF6DB3H   LINE      CODE     ---       #1060
      00FF6DDBH   LINE      CODE     ---       #1063
      00FF6DF6H   LINE      CODE     ---       #1064
      00FF6E03H   LINE      CODE     ---       #1065
      00FF6E03H   LINE      CODE     ---       #1066
      00FF6E13H   LINE      CODE     ---       #1067
      00FF6E2BH   LINE      CODE     ---       #1068
      00FF6E43H   LINE      CODE     ---       #1069
      00FF6E45H   LINE      CODE     ---       #1071
      00FF6E56H   LINE      CODE     ---       #1072
      00FF6E63H   LINE      CODE     ---       #1073
      00FF6E70H   LINE      CODE     ---       #1074
      00FF6E79H   LINE      CODE     ---       #1076
      00FF6E97H   LINE      CODE     ---       #1077
      00FF6EA8H   LINE      CODE     ---       #1079
      00FF6EB8H   LINE      CODE     ---       #1081
      00FF6EC7H   LINE      CODE     ---       #1082
      ---         BLOCKEND  ---      ---       LVL=0

      ---         MODULE    ---      ---       SEEKFREE_MPU6050
      00000A22H   PUBLIC    EDATA    INT       mpu6050_acc_x
      00000A24H   PUBLIC    EDATA    INT       mpu6050_acc_y
      00000A26H   PUBLIC    EDATA    INT       mpu6050_acc_z
L251 LINKER/LOCATER V4.66.93.0                                                        03/12/2024  22:09:15  PAGE 81


      00000A28H   PUBLIC    EDATA    INT       mpu6050_gyro_x
      00000A2AH   PUBLIC    EDATA    INT       mpu6050_gyro_y
      00000A2CH   PUBLIC    EDATA    INT       mpu6050_gyro_z
      000000D0H   SFRSYM    DATA     BYTE      PSW
      0000009DH   SFRSYM    DATA     BYTE      IRCBAND
      00000097H   SFRSYM    DATA     BYTE      AUXR2
      000000EFH   SFRSYM    DATA     BYTE      AUXINTIF
      000000FDH   SFRSYM    DATA     BYTE      S4CON
      000000ACH   SFRSYM    DATA     BYTE      S3CON
      0000009AH   SFRSYM    DATA     BYTE      S2CON
      000000B7H   SFRSYM    DATA     BYTE      IPH
      000000CDH   SFRSYM    DATA     BYTE      SPSTAT
      000000DDH   SFRSYM    DATA     BYTE      T4T3M
      000000C1H   SFRSYM    DATA     BYTE      WDT_CONTR
      000000DFH   SFRSYM    DATA     BYTE      IP3
      000000F4H   SFRSYM    DATA     BYTE      USBCON
      000000B5H   SFRSYM    DATA     BYTE      IP2
      000000FFH   SFRSYM    DATA     BYTE      RSTCFG
      000000F9H   SFRSYM    DATA     BYTE      LINICR
      0000008EH   SFRSYM    DATA     BYTE      AUXR
      000000AFH   SFRSYM    DATA     BYTE      IE2
      00000088H   SFRSYM    DATA     BYTE      TCON
      000000C0H.1 SFRSYM    DATA     BIT       P41
      00000098H   SFRSYM    DATA     BYTE      SCON
      000000C0H.0 SFRSYM    DATA     BIT       P40
      000000F1H   SFRSYM    DATA     BYTE      CANICR
      00000087H   SFRSYM    DATA     BYTE      PCON
      000000BCH   SFRSYM    DATA     BYTE      ADC_CONTR
      000000E7H   SFRSYM    DATA     BYTE      CMPCR2
      000000E6H   SFRSYM    DATA     BYTE      CMPCR1
      000000B8H   SFRSYM    DATA     BYTE      IP
      0000008FH   SFRSYM    DATA     BYTE      INTCLKO
      000000EEH   SFRSYM    DATA     BYTE      IP3H
      000000B6H   SFRSYM    DATA     BYTE      IP2H
      000000A8H   SFRSYM    DATA     BYTE      IE
      000000BBH   SFRSYM    DATA     BYTE      P_SW3
      000000BAH   SFRSYM    DATA     BYTE      P_SW2
      000000A2H   SFRSYM    DATA     BYTE      P_SW1
      000000CEH   SFRSYM    DATA     BYTE      SPCTL
      000000F8H   SFRSYM    DATA     BYTE      P7
      000000E8H   SFRSYM    DATA     BYTE      P6
      000000C8H   SFRSYM    DATA     BYTE      P5
      000000C0H   SFRSYM    DATA     BYTE      P4
      000000B0H   SFRSYM    DATA     BYTE      P3
      000000A0H   SFRSYM    DATA     BYTE      P2
      00000090H   SFRSYM    DATA     BYTE      P1
      00000080H   SFRSYM    DATA     BYTE      P0
      00FF8F65H   SYMBOL    CODE     ---       mpu6050_simiic_start
      00FF8EBEH   SYMBOL    CODE     ---       mpu6050_simiic_stop
      00FF8C56H   SYMBOL    CODE     ---       mpu6050_simiic_sendack
      00FF8DF0H   SYMBOL    CODE     ---       mpu6050_simiic_delay

      00FF8DF0H   BLOCK     CODE     ---       LVL=0
      00000DE6H   SYMBOL    EDATA    WORD      j
      00FF8DF0H   LINE      CODE     ---       #52
      00FF8DF0H   LINE      CODE     ---       #53
      00FF8DF0H   LINE      CODE     ---       #54
      00FF8DF6H   LINE      CODE     ---       #55
      00FF8E0CH   LINE      CODE     ---       #56
      ---         BLOCKEND  ---      ---       LVL=0

      00FF8F65H   BLOCK     CODE     ---       LVL=0
      00FF8F65H   LINE      CODE     ---       #59
      00FF8F65H   LINE      CODE     ---       #61
      00FF8F68H   LINE      CODE     ---       #62
L251 LINKER/LOCATER V4.66.93.0                                                        03/12/2024  22:09:15  PAGE 82


      00FF8F6BH   LINE      CODE     ---       #63
      00FF8F6EH   LINE      CODE     ---       #64
      00FF8F71H   LINE      CODE     ---       #65
      00FF8F74H   LINE      CODE     ---       #66
      00FF8F77H   LINE      CODE     ---       #67
      ---         BLOCKEND  ---      ---       LVL=0

      00FF8EBEH   BLOCK     CODE     ---       LVL=0
      00FF8EBEH   LINE      CODE     ---       #70
      00FF8EBEH   LINE      CODE     ---       #72
      00FF8EC1H   LINE      CODE     ---       #73
      00FF8EC4H   LINE      CODE     ---       #74
      00FF8EC7H   LINE      CODE     ---       #75
      00FF8ECAH   LINE      CODE     ---       #76
      00FF8ECDH   LINE      CODE     ---       #77
      00FF8ED0H   LINE      CODE     ---       #78
      00FF8ED3H   LINE      CODE     ---       #79
      ---         BLOCKEND  ---      ---       LVL=0

      00FF8C56H   BLOCK     CODE     ---       LVL=0
      00000E04H   SYMBOL    EDATA    BYTE      ack_dat
      00FF8C56H   LINE      CODE     ---       #83
      00FF8C5AH   LINE      CODE     ---       #85
      00FF8C5DH   LINE      CODE     ---       #86
      00FF8C60H   LINE      CODE     ---       #87
      00FF8C6EH   LINE      CODE     ---       #88
      00FF8C71H   LINE      CODE     ---       #90
      00FF8C74H   LINE      CODE     ---       #91
      00FF8C77H   LINE      CODE     ---       #92
      00FF8C7AH   LINE      CODE     ---       #93
      00FF8C7DH   LINE      CODE     ---       #94
      ---         BLOCKEND  ---      ---       LVL=0
      00000DE8H   SYMBOL    EDATA    BYTE      c
      00000DE9H   SYMBOL    EDATA    BYTE      i
      00000D9DH   SYMBOL    EDATA    BYTE      ack_x
      00000D9EH   SYMBOL    EDATA    BYTE      i
      00000D9FH   SYMBOL    EDATA    BYTE      c
      00000DA0H   SYMBOL    EDATA    BYTE      dev_add
      00000DA1H   SYMBOL    EDATA    BYTE      reg
      00000DA2H   SYMBOL    EDATA    BYTE      dat
      00000DA3H   SYMBOL    EDATA    BYTE      dev_add
      00000DA4H   SYMBOL    EDATA    BYTE      reg
      00000DA5H   SYMBOL    EDATA    BYTE      dat
      00000C60H   SYMBOL    EDATA    BYTE      dev_add
      00000C61H   SYMBOL    EDATA    BYTE      reg
      00000C62H   SYMBOL    EDATA    ---       dat_add
      00000C66H   SYMBOL    EDATA    BYTE      num
      00000CF1H   SYMBOL    EDATA    ---       dat
      00000CF7H   SYMBOL    EDATA    ---       dat

      ---         MODULE    ---      ---       SEEKFREE_OLED
      00FF8AF9H   PUBLIC    CODE     ---       oled_set_pos
      00FF8756H   PUBLIC    CODE     ---       oled_wrcmd
      00FF87A2H   PUBLIC    CODE     ---       oled_wrdat
      00FF8A8EH   PUBLIC    CODE     ---       oled_set_pos_spi
      00FF8F28H   PUBLIC    CODE     ---       oled_wrcmd_spi
      00FF8F3DH   PUBLIC    CODE     ---       oled_wrdat_spi
      000005B7H   PUBLIC    EDATA    BYTE      ?oled_printf_float?BYTE
      000005E7H   PUBLIC    EDATA    BYTE      ?oled_printf_float_spi?BYTE
      000000D0H   SFRSYM    DATA     BYTE      PSW
      0000009DH   SFRSYM    DATA     BYTE      IRCBAND
      00000097H   SFRSYM    DATA     BYTE      AUXR2
      000000EFH   SFRSYM    DATA     BYTE      AUXINTIF
      000000FDH   SFRSYM    DATA     BYTE      S4CON
      000000ACH   SFRSYM    DATA     BYTE      S3CON
L251 LINKER/LOCATER V4.66.93.0                                                        03/12/2024  22:09:15  PAGE 83


      0000009AH   SFRSYM    DATA     BYTE      S2CON
      000000B7H   SFRSYM    DATA     BYTE      IPH
      000000CDH   SFRSYM    DATA     BYTE      SPSTAT
      000000DDH   SFRSYM    DATA     BYTE      T4T3M
      000000C1H   SFRSYM    DATA     BYTE      WDT_CONTR
      000000DFH   SFRSYM    DATA     BYTE      IP3
      000000F4H   SFRSYM    DATA     BYTE      USBCON
      000000B5H   SFRSYM    DATA     BYTE      IP2
      000000FFH   SFRSYM    DATA     BYTE      RSTCFG
      000000F9H   SFRSYM    DATA     BYTE      LINICR
      0000008EH   SFRSYM    DATA     BYTE      AUXR
      000000AFH   SFRSYM    DATA     BYTE      IE2
      000000A0H.5 SFRSYM    DATA     BIT       P25
      00000088H   SFRSYM    DATA     BYTE      TCON
      000000A0H.3 SFRSYM    DATA     BIT       P23
      00000098H   SFRSYM    DATA     BYTE      SCON
      000000A0H.2 SFRSYM    DATA     BIT       P22
      000000A0H.1 SFRSYM    DATA     BIT       P21
      000000A0H.0 SFRSYM    DATA     BIT       P20
      000000F1H   SFRSYM    DATA     BYTE      CANICR
      00000087H   SFRSYM    DATA     BYTE      PCON
      000000BCH   SFRSYM    DATA     BYTE      ADC_CONTR
      000000E7H   SFRSYM    DATA     BYTE      CMPCR2
      000000E6H   SFRSYM    DATA     BYTE      CMPCR1
      000000B8H   SFRSYM    DATA     BYTE      IP
      0000008FH   SFRSYM    DATA     BYTE      INTCLKO
      000000EEH   SFRSYM    DATA     BYTE      IP3H
      000000B6H   SFRSYM    DATA     BYTE      IP2H
      000000A8H   SFRSYM    DATA     BYTE      IE
      000000BBH   SFRSYM    DATA     BYTE      P_SW3
      000000BAH   SFRSYM    DATA     BYTE      P_SW2
      000000A2H   SFRSYM    DATA     BYTE      P_SW1
      000000CEH   SFRSYM    DATA     BYTE      SPCTL
      000000F8H   SFRSYM    DATA     BYTE      P7
      000000E8H   SFRSYM    DATA     BYTE      P6
      000000C8H   SFRSYM    DATA     BYTE      P5
      000000C0H   SFRSYM    DATA     BYTE      P4
      000000B0H   SFRSYM    DATA     BYTE      P3
      000000A0H   SFRSYM    DATA     BYTE      P2
      00000090H   SFRSYM    DATA     BYTE      P1
      00000080H   SFRSYM    DATA     BYTE      P0

      00FF87A2H   BLOCK     CODE     ---       LVL=0
      00000DEAH   SYMBOL    EDATA    BYTE      dat
      00FF87A6H   BLOCK     CODE     NEAR LAB  LVL=1
      00000DEBH   SYMBOL    EDATA    BYTE      i
      ---         BLOCKEND  ---      ---       LVL=1
      00FF87A2H   LINE      CODE     ---       #47
      00FF87A6H   LINE      CODE     ---       #48
      00FF87A6H   LINE      CODE     ---       #49
      00FF87ACH   LINE      CODE     ---       #51
      00FF87AFH   LINE      CODE     ---       #52
      00FF87B2H   LINE      CODE     ---       #53
      00FF87B5H   LINE      CODE     ---       #54
      00FF87B7H   LINE      CODE     ---       #56
      00FF87C3H   LINE      CODE     ---       #57
      00FF87C6H   LINE      CODE     ---       #58
      00FF87C9H   LINE      CODE     ---       #60
      00FF87CCH   LINE      CODE     ---       #61
      00FF87D6H   LINE      CODE     ---       #62
      00FF87EAH   LINE      CODE     ---       #63
      00FF87EDH   LINE      CODE     ---       #64
      ---         BLOCKEND  ---      ---       LVL=0

      00FF8756H   BLOCK     CODE     ---       LVL=0
L251 LINKER/LOCATER V4.66.93.0                                                        03/12/2024  22:09:15  PAGE 84


      00000DECH   SYMBOL    EDATA    BYTE      cmd
      00FF875AH   BLOCK     CODE     NEAR LAB  LVL=1
      00000DEDH   SYMBOL    EDATA    BYTE      i
      ---         BLOCKEND  ---      ---       LVL=1
      00FF8756H   LINE      CODE     ---       #98
      00FF875AH   LINE      CODE     ---       #99
      00FF875AH   LINE      CODE     ---       #100
      00FF8760H   LINE      CODE     ---       #102
      00FF8763H   LINE      CODE     ---       #103
      00FF8766H   LINE      CODE     ---       #104
      00FF8769H   LINE      CODE     ---       #106
      00FF876BH   LINE      CODE     ---       #108
      00FF8777H   LINE      CODE     ---       #109
      00FF877AH   LINE      CODE     ---       #110
      00FF877DH   LINE      CODE     ---       #112
      00FF8780H   LINE      CODE     ---       #113
      00FF878AH   LINE      CODE     ---       #114
      00FF879EH   LINE      CODE     ---       #115
      00FF87A1H   LINE      CODE     ---       #116
      ---         BLOCKEND  ---      ---       LVL=0
      00000C1CH   SYMBOL    EDATA    WORD      hex
      00000C1EH   SYMBOL    EDATA    ---       Print
      00000C22H   SYMBOL    EDATA    BYTE      hexcheck
      00000C23H   SYMBOL    EDATA    BYTE      TEMP

      00FF8AF9H   BLOCK     CODE     ---       LVL=0
      00000DEEH   SYMBOL    EDATA    BYTE      x
      00000DEFH   SYMBOL    EDATA    BYTE      y
      00FF8AF9H   LINE      CODE     ---       #205
      00FF8B01H   LINE      CODE     ---       #207
      00FF8B0CH   LINE      CODE     ---       #208
      00FF8B22H   LINE      CODE     ---       #209
      00FF8B2DH   LINE      CODE     ---       #210
      ---         BLOCKEND  ---      ---       LVL=0
      00000DA6H   SYMBOL    EDATA    BYTE      bmp_data
      00000DA7H   SYMBOL    EDATA    BYTE      y
      00000DA8H   SYMBOL    EDATA    BYTE      x
      00000DA9H   SYMBOL    EDATA    BYTE      x
      00000DAAH   SYMBOL    EDATA    BYTE      y
      00000DABH   SYMBOL    EDATA    BYTE      data1
      00000DF0H   SYMBOL    EDATA    BYTE      x
      00000DF1H   SYMBOL    EDATA    BYTE      y
      00000B96H   SYMBOL    EDATA    BYTE      x
      00000B97H   SYMBOL    EDATA    BYTE      y
      00000B98H   SYMBOL    EDATA    ---       ch
      00000B9CH   SYMBOL    EDATA    BYTE      c
      00000B9DH   SYMBOL    EDATA    BYTE      i
      00000B9EH   SYMBOL    EDATA    BYTE      j
      00000B9FH   SYMBOL    EDATA    BYTE      x
      00000BA0H   SYMBOL    EDATA    BYTE      y
      00000BA1H   SYMBOL    EDATA    ---       ch
      00000BA5H   SYMBOL    EDATA    BYTE      c
      00000BA6H   SYMBOL    EDATA    BYTE      i
      00000BA7H   SYMBOL    EDATA    BYTE      j
      00000A46H   SYMBOL    EDATA    BYTE      x
      00000A47H   SYMBOL    EDATA    BYTE      y
      00000A48H   SYMBOL    EDATA    WORD      num
      00000A4AH   SYMBOL    EDATA    ---       ch
      00000A51H   SYMBOL    EDATA    BYTE      x
      00000A52H   SYMBOL    EDATA    BYTE      y
      00000A53H   SYMBOL    EDATA    INT       num
      00000A55H   SYMBOL    EDATA    ---       ch
      000006F6H   SYMBOL    EDATA    WORD      x
      000006F8H   SYMBOL    EDATA    WORD      y
      000006FAH   SYMBOL    EDATA    LONG      dat
L251 LINKER/LOCATER V4.66.93.0                                                        03/12/2024  22:09:15  PAGE 85


      000006FEH   SYMBOL    EDATA    BYTE      num
      000006FFH   SYMBOL    EDATA    ---       buff
      00000721H   SYMBOL    EDATA    BYTE      length
      000005B7H   SYMBOL    EDATA    WORD      x
      000005B9H   SYMBOL    EDATA    WORD      y
      000005BBH   SYMBOL    EDATA    FLOAT     dat
      000005BFH   SYMBOL    EDATA    BYTE      num
      000005C0H   SYMBOL    EDATA    BYTE      pointnum
      000005C1H   SYMBOL    EDATA    BYTE      length
      000005C2H   SYMBOL    EDATA    ---       buff
      000005E4H   SYMBOL    EDATA    CHAR      start
      000005E5H   SYMBOL    EDATA    CHAR      end
      000005E6H   SYMBOL    EDATA    CHAR      point
      0000089DH   SYMBOL    EDATA    WORD      high
      0000089FH   SYMBOL    EDATA    WORD      width
      000008A1H   SYMBOL    EDATA    ---       p
      000008A5H   SYMBOL    EDATA    BYTE      value
      000008A6H   SYMBOL    EDATA    WORD      i
      000008A8H   SYMBOL    EDATA    WORD      j
      000008AAH   SYMBOL    EDATA    WORD      temp
      000008ACH   SYMBOL    EDATA    WORD      temp1
      000008AEH   SYMBOL    EDATA    BYTE      dat
      0000091DH   SYMBOL    EDATA    BYTE      x
      0000091EH   SYMBOL    EDATA    BYTE      y
      0000091FH   SYMBOL    EDATA    BYTE      size
      00000920H   SYMBOL    EDATA    ---       p
      00000924H   SYMBOL    EDATA    BYTE      len
      00000925H   SYMBOL    EDATA    WORD      i
      00000927H   SYMBOL    EDATA    WORD      j
      00000929H   SYMBOL    EDATA    WORD      k

      00FF8F3DH   BLOCK     CODE     ---       LVL=0
      00000E05H   SYMBOL    EDATA    BYTE      dat
      00FF8F3DH   LINE      CODE     ---       #534
      00FF8F41H   LINE      CODE     ---       #536
      00FF8F44H   LINE      CODE     ---       #537
      00FF8F47H   LINE      CODE     ---       #538
      00FF8F4EH   LINE      CODE     ---       #539
      00FF8F51H   LINE      CODE     ---       #542
      ---         BLOCKEND  ---      ---       LVL=0

      00FF8F28H   BLOCK     CODE     ---       LVL=0
      00000E06H   SYMBOL    EDATA    BYTE      cmd
      00FF8F28H   LINE      CODE     ---       #576
      00FF8F2CH   LINE      CODE     ---       #578
      00FF8F2FH   LINE      CODE     ---       #579
      00FF8F32H   LINE      CODE     ---       #580
      00FF8F39H   LINE      CODE     ---       #581
      00FF8F3CH   LINE      CODE     ---       #582
      ---         BLOCKEND  ---      ---       LVL=0
      00000C24H   SYMBOL    EDATA    WORD      hex
      00000C26H   SYMBOL    EDATA    ---       Print
      00000C2AH   SYMBOL    EDATA    BYTE      hexcheck
      00000C2BH   SYMBOL    EDATA    BYTE      TEMP

      00FF8A8EH   BLOCK     CODE     ---       LVL=0
      00000DF2H   SYMBOL    EDATA    BYTE      x
      00000DF3H   SYMBOL    EDATA    BYTE      y
      00FF8A8EH   LINE      CODE     ---       #672
      00FF8A96H   LINE      CODE     ---       #676
      00FF8AA1H   LINE      CODE     ---       #677
      00FF8AB8H   LINE      CODE     ---       #678
      00FF8AC3H   LINE      CODE     ---       #679
      ---         BLOCKEND  ---      ---       LVL=0
      00000DACH   SYMBOL    EDATA    BYTE      bmp_data
L251 LINKER/LOCATER V4.66.93.0                                                        03/12/2024  22:09:15  PAGE 86


      00000DADH   SYMBOL    EDATA    BYTE      y
      00000DAEH   SYMBOL    EDATA    BYTE      x
      00000DAFH   SYMBOL    EDATA    BYTE      x
      00000DB0H   SYMBOL    EDATA    BYTE      y
      00000DB1H   SYMBOL    EDATA    BYTE      data1
      00000DF4H   SYMBOL    EDATA    BYTE      x
      00000DF5H   SYMBOL    EDATA    BYTE      y
      00000BA8H   SYMBOL    EDATA    BYTE      x
      00000BA9H   SYMBOL    EDATA    BYTE      y
      00000BAAH   SYMBOL    EDATA    ---       ch
      00000BAEH   SYMBOL    EDATA    BYTE      c
      00000BAFH   SYMBOL    EDATA    BYTE      i
      00000BB0H   SYMBOL    EDATA    BYTE      j
      00000BB1H   SYMBOL    EDATA    BYTE      x
      00000BB2H   SYMBOL    EDATA    BYTE      y
      00000BB3H   SYMBOL    EDATA    ---       ch
      00000BB7H   SYMBOL    EDATA    BYTE      c
      00000BB8H   SYMBOL    EDATA    BYTE      i
      00000BB9H   SYMBOL    EDATA    BYTE      j
      00000A5CH   SYMBOL    EDATA    BYTE      x
      00000A5DH   SYMBOL    EDATA    BYTE      y
      00000A5EH   SYMBOL    EDATA    WORD      num
      00000A60H   SYMBOL    EDATA    ---       ch
      00000A67H   SYMBOL    EDATA    BYTE      x
      00000A68H   SYMBOL    EDATA    BYTE      y
      00000A69H   SYMBOL    EDATA    INT       num
      00000A6BH   SYMBOL    EDATA    ---       ch
      00000722H   SYMBOL    EDATA    WORD      x
      00000724H   SYMBOL    EDATA    WORD      y
      00000726H   SYMBOL    EDATA    LONG      dat
      0000072AH   SYMBOL    EDATA    BYTE      num
      0000072BH   SYMBOL    EDATA    ---       buff
      0000074DH   SYMBOL    EDATA    BYTE      length
      000005E7H   SYMBOL    EDATA    WORD      x
      000005E9H   SYMBOL    EDATA    WORD      y
      000005EBH   SYMBOL    EDATA    FLOAT     dat
      000005EFH   SYMBOL    EDATA    BYTE      num
      000005F0H   SYMBOL    EDATA    BYTE      pointnum
      000005F1H   SYMBOL    EDATA    BYTE      length
      000005F2H   SYMBOL    EDATA    ---       buff
      00000614H   SYMBOL    EDATA    CHAR      start
      00000615H   SYMBOL    EDATA    CHAR      end
      00000616H   SYMBOL    EDATA    CHAR      point
      000008AFH   SYMBOL    EDATA    WORD      high
      000008B1H   SYMBOL    EDATA    WORD      width
      000008B3H   SYMBOL    EDATA    ---       p
      000008B7H   SYMBOL    EDATA    BYTE      value
      000008B8H   SYMBOL    EDATA    WORD      i
      000008BAH   SYMBOL    EDATA    WORD      j
      000008BCH   SYMBOL    EDATA    WORD      temp
      000008BEH   SYMBOL    EDATA    WORD      temp1
      000008C0H   SYMBOL    EDATA    BYTE      dat
      0000092BH   SYMBOL    EDATA    BYTE      x
      0000092CH   SYMBOL    EDATA    BYTE      y
      0000092DH   SYMBOL    EDATA    BYTE      size
      0000092EH   SYMBOL    EDATA    ---       p
      00000932H   SYMBOL    EDATA    BYTE      len
      00000933H   SYMBOL    EDATA    WORD      i
      00000935H   SYMBOL    EDATA    WORD      j
      00000937H   SYMBOL    EDATA    WORD      k

      ---         MODULE    ---      ---       SEEKFREE_PRINTF
      00FF7107H   PUBLIC    CODE     ---       number_conversion_ascii
      00FF4292H   PUBLIC    CODE     ---       zf_sprintf
      00FF7AB7H   PUBLIC    CODE     ---       printf_reverse_order
L251 LINKER/LOCATER V4.66.93.0                                                        03/12/2024  22:09:15  PAGE 87


      00000865H   PUBLIC    EDATA    BYTE      ?number_conversion_ascii?BYTE
      000003B8H   PUBLIC    EDATA    BYTE      ?zf_sprintf?BYTE
      000000D0H   SFRSYM    DATA     BYTE      PSW
      0000009DH   SFRSYM    DATA     BYTE      IRCBAND
      00000097H   SFRSYM    DATA     BYTE      AUXR2
      000000EFH   SFRSYM    DATA     BYTE      AUXINTIF
      000000FDH   SFRSYM    DATA     BYTE      S4CON
      000000ACH   SFRSYM    DATA     BYTE      S3CON
      0000009AH   SFRSYM    DATA     BYTE      S2CON
      000000B7H   SFRSYM    DATA     BYTE      IPH
      000000CDH   SFRSYM    DATA     BYTE      SPSTAT
      000000DDH   SFRSYM    DATA     BYTE      T4T3M
      000000C1H   SFRSYM    DATA     BYTE      WDT_CONTR
      000000DFH   SFRSYM    DATA     BYTE      IP3
      000000F4H   SFRSYM    DATA     BYTE      USBCON
      000000B5H   SFRSYM    DATA     BYTE      IP2
      000000FFH   SFRSYM    DATA     BYTE      RSTCFG
      000000F9H   SFRSYM    DATA     BYTE      LINICR
      0000008EH   SFRSYM    DATA     BYTE      AUXR
      000000AFH   SFRSYM    DATA     BYTE      IE2
      00000088H   SFRSYM    DATA     BYTE      TCON
      00000098H   SFRSYM    DATA     BYTE      SCON
      000000F1H   SFRSYM    DATA     BYTE      CANICR
      00000087H   SFRSYM    DATA     BYTE      PCON
      000000BCH   SFRSYM    DATA     BYTE      ADC_CONTR
      000000E7H   SFRSYM    DATA     BYTE      CMPCR2
      000000E6H   SFRSYM    DATA     BYTE      CMPCR1
      000000B8H   SFRSYM    DATA     BYTE      IP
      0000008FH   SFRSYM    DATA     BYTE      INTCLKO
      000000EEH   SFRSYM    DATA     BYTE      IP3H
      000000B6H   SFRSYM    DATA     BYTE      IP2H
      000000A8H   SFRSYM    DATA     BYTE      IE
      000000BBH   SFRSYM    DATA     BYTE      P_SW3
      000000BAH   SFRSYM    DATA     BYTE      P_SW2
      000000A2H   SFRSYM    DATA     BYTE      P_SW1
      000000CEH   SFRSYM    DATA     BYTE      SPCTL
      000000F8H   SFRSYM    DATA     BYTE      P7
      000000E8H   SFRSYM    DATA     BYTE      P6
      000000C8H   SFRSYM    DATA     BYTE      P5
      000000C0H   SFRSYM    DATA     BYTE      P4
      000000B0H   SFRSYM    DATA     BYTE      P3
      000000A0H   SFRSYM    DATA     BYTE      P2
      00000090H   SFRSYM    DATA     BYTE      P1
      00000080H   SFRSYM    DATA     BYTE      P0

      00FF7107H   BLOCK     CODE     ---       LVL=0
      00000865H   SYMBOL    EDATA    DWORD     dat
      00000869H   SYMBOL    EDATA    ---       p
      0000086DH   SYMBOL    EDATA    BYTE      neg_type
      0000086EH   SYMBOL    EDATA    BYTE      radix
      00FF7113H   BLOCK     CODE     NEAR LAB  LVL=1
      0000086FH   SYMBOL    EDATA    LONG      neg_dat
      00000873H   SYMBOL    EDATA    DWORD     pos_dat
      00000877H   SYMBOL    EDATA    BYTE      temp_data
      00000878H   SYMBOL    EDATA    BYTE      valid_num
      ---         BLOCKEND  ---      ---       LVL=1
      00FF7107H   LINE      CODE     ---       #29
      00FF7113H   LINE      CODE     ---       #30
      00FF7113H   LINE      CODE     ---       #33
      00FF7118H   LINE      CODE     ---       #34
      00FF711DH   LINE      CODE     ---       #36
      00FF7126H   LINE      CODE     ---       #38
      00FF712EH   LINE      CODE     ---       #39
      00FF7146H   LINE      CODE     ---       #40
      00FF7146H   LINE      CODE     ---       #42
L251 LINKER/LOCATER V4.66.93.0                                                        03/12/2024  22:09:15  PAGE 88


      00FF7162H   LINE      CODE     ---       #43
      00FF7175H   LINE      CODE     ---       #44
      00FF7182H   LINE      CODE     ---       #46
      00FF718AH   LINE      CODE     ---       #47
      00FF7194H   LINE      CODE     ---       #48
      00FF7196H   LINE      CODE     ---       #49
      00FF7199H   LINE      CODE     ---       #52
      00FF71A1H   LINE      CODE     ---       #53
      00FF71A1H   LINE      CODE     ---       #55
      00FF71B6H   LINE      CODE     ---       #56
      00FF71CEH   LINE      CODE     ---       #57
      00FF71DAH   LINE      CODE     ---       #59
      00FF71E5H   LINE      CODE     ---       #61
      00FF71F8H   LINE      CODE     ---       #62
      00FF7205H   LINE      CODE     ---       #64
      00FF720DH   LINE      CODE     ---       #65
      00FF7217H   LINE      CODE     ---       #66
      00FF7219H   LINE      CODE     ---       #67
      00FF7219H   LINE      CODE     ---       #68
      00FF721DH   LINE      CODE     ---       #69
      ---         BLOCKEND  ---      ---       LVL=0

      00FF7AB7H   BLOCK     CODE     ---       LVL=0
      00000961H   SYMBOL    EDATA    ---       d_buff
      00000965H   SYMBOL    EDATA    DWORD     len
      00FF7ABFH   BLOCK     CODE     NEAR LAB  LVL=1
      00000969H   SYMBOL    EDATA    DWORD     i
      0000096DH   SYMBOL    EDATA    CHAR      temp_data
      ---         BLOCKEND  ---      ---       LVL=1
      00FF7AB7H   LINE      CODE     ---       #71
      00FF7ABFH   LINE      CODE     ---       #72
      00FF7ABFH   LINE      CODE     ---       #75
      00FF7AC7H   LINE      CODE     ---       #77
      00FF7AE6H   LINE      CODE     ---       #78
      00FF7B10H   LINE      CODE     ---       #79
      00FF7B23H   LINE      CODE     ---       #80
      00FF7B4BH   LINE      CODE     ---       #81
      ---         BLOCKEND  ---      ---       LVL=0

      00FF4292H   BLOCK     CODE     ---       LVL=0
      000003B8H   SYMBOL    EDATA    ---       buff
      000003BCH   SYMBOL    EDATA    ---       format
      00FF429AH   BLOCK     CODE     NEAR LAB  LVL=1
      000003C0H   SYMBOL    EDATA    DWORD     buff_len
      000003C4H   SYMBOL    EDATA    ---       arg
      00FF42AFH   BLOCK     CODE     NEAR LAB  LVL=2
      000003C8H   SYMBOL    EDATA    CHAR      ret
      00FF43E4H   BLOCK     CODE     NEAR LAB  LVL=3
      000003C9H   SYMBOL    EDATA    CHAR      ch
      ---         BLOCKEND  ---      ---       LVL=3
      00FF4423H   BLOCK     CODE     NEAR LAB  LVL=3
      000003C9H   SYMBOL    EDATA    ---       vstr
      000003EAH   SYMBOL    EDATA    LONG      ival
      000003EEH   SYMBOL    EDATA    BYTE      vlen
      ---         BLOCKEND  ---      ---       LVL=3
      00FF44C4H   BLOCK     CODE     NEAR LAB  LVL=3
      000003C9H   SYMBOL    EDATA    ---       vstr
      000003EAH   SYMBOL    EDATA    FLOAT     ival
      000003EEH   SYMBOL    EDATA    BYTE      vlen
      ---         BLOCKEND  ---      ---       LVL=3
      00FF4665H   BLOCK     CODE     NEAR LAB  LVL=3
      000003C9H   SYMBOL    EDATA    ---       vstr
      000003EAH   SYMBOL    EDATA    DWORD     ival
      000003EEH   SYMBOL    EDATA    BYTE      vlen
      ---         BLOCKEND  ---      ---       LVL=3
L251 LINKER/LOCATER V4.66.93.0                                                        03/12/2024  22:09:15  PAGE 89


      00FF46DDH   BLOCK     CODE     NEAR LAB  LVL=3
      000003C9H   SYMBOL    EDATA    ---       vstr
      000003EAH   SYMBOL    EDATA    DWORD     ival
      000003EEH   SYMBOL    EDATA    BYTE      vlen
      ---         BLOCKEND  ---      ---       LVL=3
      00FF4755H   BLOCK     CODE     NEAR LAB  LVL=3
      000003C9H   SYMBOL    EDATA    ---       vstr
      000003EAH   SYMBOL    EDATA    DWORD     ival
      000003EEH   SYMBOL    EDATA    BYTE      vlen
      ---         BLOCKEND  ---      ---       LVL=3
      00FF47CDH   BLOCK     CODE     NEAR LAB  LVL=3
      000003C9H   SYMBOL    EDATA    ---       pc
      ---         BLOCKEND  ---      ---       LVL=3
      00FF4827H   BLOCK     CODE     NEAR LAB  LVL=3
      000003C9H   SYMBOL    EDATA    ---       vstr
      000003EAH   SYMBOL    EDATA    DWORD     ival
      ---         BLOCKEND  ---      ---       LVL=3
      ---         BLOCKEND  ---      ---       LVL=2
      ---         BLOCKEND  ---      ---       LVL=1
      00FF4292H   LINE      CODE     ---       #216
      00FF429AH   LINE      CODE     ---       #217
      00FF429AH   LINE      CODE     ---       #218
      00FF42A0H   LINE      CODE     ---       #220
      00FF42ACH   LINE      CODE     ---       #222
      00FF42AFH   LINE      CODE     ---       #223
      00FF42AFH   LINE      CODE     ---       #224
      00FF42BAH   LINE      CODE     ---       #225
      00FF42C6H   LINE      CODE     ---       #227
      00FF43E1H   LINE      CODE     ---       #229
      00FF43E1H   LINE      CODE     ---       #233
      00FF43E4H   LINE      CODE     ---       #236
      00FF43E4H   LINE      CODE     ---       #237
      00FF43E4H   LINE      CODE     ---       #238
      00FF43FDH   LINE      CODE     ---       #239
      00FF4408H   LINE      CODE     ---       #240
      00FF4412H   LINE      CODE     ---       #241
      00FF4420H   LINE      CODE     ---       #243
      00FF4423H   LINE      CODE     ---       #246
      00FF4423H   LINE      CODE     ---       #247
      00FF4423H   LINE      CODE     ---       #248
      00FF4423H   LINE      CODE     ---       #250
      00FF443CH   LINE      CODE     ---       #251
      00FF4453H   LINE      CODE     ---       #253
      00FF445DH   LINE      CODE     ---       #255
      00FF446EH   LINE      CODE     ---       #256
      00FF447BH   LINE      CODE     ---       #257
      00FF447BH   LINE      CODE     ---       #258
      00FF448AH   LINE      CODE     ---       #259
      00FF449FH   LINE      CODE     ---       #260
      00FF44AFH   LINE      CODE     ---       #261
      00FF44C1H   LINE      CODE     ---       #264
      00FF44C4H   LINE      CODE     ---       #266
      00FF44C4H   LINE      CODE     ---       #267
      00FF44C4H   LINE      CODE     ---       #268
      00FF44C4H   LINE      CODE     ---       #270
      00FF44DDH   LINE      CODE     ---       #271
      00FF44F7H   LINE      CODE     ---       #273
      00FF4502H   LINE      CODE     ---       #275
      00FF4513H   LINE      CODE     ---       #276
      00FF4520H   LINE      CODE     ---       #277
      00FF4520H   LINE      CODE     ---       #278
      00FF452FH   LINE      CODE     ---       #279
      00FF4544H   LINE      CODE     ---       #280
      00FF4554H   LINE      CODE     ---       #281
      00FF4566H   LINE      CODE     ---       #283
L251 LINKER/LOCATER V4.66.93.0                                                        03/12/2024  22:09:15  PAGE 90


      00FF458AH   LINE      CODE     ---       #284
      00FF458EH   LINE      CODE     ---       #286
      00FF45A8H   LINE      CODE     ---       #287
      00FF45AAH   LINE      CODE     ---       #290
      00FF45CEH   LINE      CODE     ---       #291
      00FF45D4H   LINE      CODE     ---       #292
      00FF45D4H   LINE      CODE     ---       #294
      00FF45D6H   LINE      CODE     ---       #296
      00FF45E7H   LINE      CODE     ---       #297
      00FF45F4H   LINE      CODE     ---       #298
      00FF45FEH   LINE      CODE     ---       #300
      00FF460FH   LINE      CODE     ---       #301
      00FF461CH   LINE      CODE     ---       #303
      00FF462BH   LINE      CODE     ---       #304
      00FF4640H   LINE      CODE     ---       #305
      00FF4650H   LINE      CODE     ---       #306
      00FF4662H   LINE      CODE     ---       #308
      00FF4665H   LINE      CODE     ---       #311
      00FF4665H   LINE      CODE     ---       #312
      00FF4665H   LINE      CODE     ---       #314
      00FF467EH   LINE      CODE     ---       #315
      00FF4694H   LINE      CODE     ---       #317
      00FF46A3H   LINE      CODE     ---       #318
      00FF46B8H   LINE      CODE     ---       #319
      00FF46C8H   LINE      CODE     ---       #320
      00FF46DAH   LINE      CODE     ---       #321
      00FF46DDH   LINE      CODE     ---       #323
      00FF46DDH   LINE      CODE     ---       #324
      00FF46DDH   LINE      CODE     ---       #326
      00FF46F6H   LINE      CODE     ---       #327
      00FF470CH   LINE      CODE     ---       #329
      00FF471BH   LINE      CODE     ---       #330
      00FF4730H   LINE      CODE     ---       #331
      00FF4740H   LINE      CODE     ---       #332
      00FF4752H   LINE      CODE     ---       #334
      00FF4755H   LINE      CODE     ---       #336
      00FF4755H   LINE      CODE     ---       #337
      00FF4755H   LINE      CODE     ---       #338
      00FF4755H   LINE      CODE     ---       #340
      00FF476EH   LINE      CODE     ---       #341
      00FF4784H   LINE      CODE     ---       #343
      00FF4793H   LINE      CODE     ---       #344
      00FF47A8H   LINE      CODE     ---       #345
      00FF47B8H   LINE      CODE     ---       #346
      00FF47CAH   LINE      CODE     ---       #347
      00FF47CDH   LINE      CODE     ---       #350
      00FF47CDH   LINE      CODE     ---       #351
      00FF47CDH   LINE      CODE     ---       #352
      00FF47E6H   LINE      CODE     ---       #353
      00FF47E8H   LINE      CODE     ---       #355
      00FF47F6H   LINE      CODE     ---       #356
      00FF4800H   LINE      CODE     ---       #357
      00FF480EH   LINE      CODE     ---       #358
      00FF4818H   LINE      CODE     ---       #359
      00FF4824H   LINE      CODE     ---       #360
      00FF4827H   LINE      CODE     ---       #362
      00FF4827H   LINE      CODE     ---       #363
      00FF4827H   LINE      CODE     ---       #365
      00FF4840H   LINE      CODE     ---       #367
      00FF4852H   LINE      CODE     ---       #369
      00FF485DH   LINE      CODE     ---       #370
      00FF4870H   LINE      CODE     ---       #371
      00FF487CH   LINE      CODE     ---       #372
      00FF488AH   LINE      CODE     ---       #374
      00FF488CH   LINE      CODE     ---       #377
L251 LINKER/LOCATER V4.66.93.0                                                        03/12/2024  22:09:15  PAGE 91


      00FF488CH   LINE      CODE     ---       #379
      00FF4895H   LINE      CODE     ---       #380
      00FF489FH   LINE      CODE     ---       #381
      00FF48ADH   LINE      CODE     ---       #382
      00FF48AFH   LINE      CODE     ---       #384
      00FF48AFH   LINE      CODE     ---       #385
      00FF48AFH   LINE      CODE     ---       #386
      00FF48AFH   LINE      CODE     ---       #389
      00FF48BDH   LINE      CODE     ---       #390
      00FF48C7H   LINE      CODE     ---       #391
      00FF48D5H   LINE      CODE     ---       #392
      00FF48D5H   LINE      CODE     ---       #393
      00FF48DFH   LINE      CODE     ---       #394
      00FF48EEH   LINE      CODE     ---       #397
      00FF48F2H   LINE      CODE     ---       #398
      ---         BLOCKEND  ---      ---       LVL=0

      ---         MODULE    ---      ---       SEEKFREE_VIRSCO
      00000AEAH   PUBLIC    EDATA    ---       virtual_scope_data
      00000939H   PUBLIC    EDATA    BYTE      ?data_conversion?BYTE
      000000D0H   SFRSYM    DATA     BYTE      PSW
      0000009DH   SFRSYM    DATA     BYTE      IRCBAND
      00000097H   SFRSYM    DATA     BYTE      AUXR2
      000000EFH   SFRSYM    DATA     BYTE      AUXINTIF
      000000FDH   SFRSYM    DATA     BYTE      S4CON
      000000ACH   SFRSYM    DATA     BYTE      S3CON
      0000009AH   SFRSYM    DATA     BYTE      S2CON
      000000B7H   SFRSYM    DATA     BYTE      IPH
      000000CDH   SFRSYM    DATA     BYTE      SPSTAT
      000000DDH   SFRSYM    DATA     BYTE      T4T3M
      000000C1H   SFRSYM    DATA     BYTE      WDT_CONTR
      000000DFH   SFRSYM    DATA     BYTE      IP3
      000000F4H   SFRSYM    DATA     BYTE      USBCON
      000000B5H   SFRSYM    DATA     BYTE      IP2
      000000FFH   SFRSYM    DATA     BYTE      RSTCFG
      000000F9H   SFRSYM    DATA     BYTE      LINICR
      0000008EH   SFRSYM    DATA     BYTE      AUXR
      000000AFH   SFRSYM    DATA     BYTE      IE2
      00000088H   SFRSYM    DATA     BYTE      TCON
      00000098H   SFRSYM    DATA     BYTE      SCON
      000000F1H   SFRSYM    DATA     BYTE      CANICR
      00000087H   SFRSYM    DATA     BYTE      PCON
      000000BCH   SFRSYM    DATA     BYTE      ADC_CONTR
      000000E7H   SFRSYM    DATA     BYTE      CMPCR2
      000000E6H   SFRSYM    DATA     BYTE      CMPCR1
      000000B8H   SFRSYM    DATA     BYTE      IP
      0000008FH   SFRSYM    DATA     BYTE      INTCLKO
      000000EEH   SFRSYM    DATA     BYTE      IP3H
      000000B6H   SFRSYM    DATA     BYTE      IP2H
      000000A8H   SFRSYM    DATA     BYTE      IE
      000000BBH   SFRSYM    DATA     BYTE      P_SW3
      000000BAH   SFRSYM    DATA     BYTE      P_SW2
      000000A2H   SFRSYM    DATA     BYTE      P_SW1
      000000CEH   SFRSYM    DATA     BYTE      SPCTL
      000000F8H   SFRSYM    DATA     BYTE      P7
      000000E8H   SFRSYM    DATA     BYTE      P6
      000000C8H   SFRSYM    DATA     BYTE      P5
      000000C0H   SFRSYM    DATA     BYTE      P4
      000000B0H   SFRSYM    DATA     BYTE      P3
      000000A0H   SFRSYM    DATA     BYTE      P2
      00000090H   SFRSYM    DATA     BYTE      P1
      00000080H   SFRSYM    DATA     BYTE      P0
      00000BBAH   SYMBOL    EDATA    ---       Buf
      00000BBEH   SYMBOL    EDATA    BYTE      CRC_CNT
      00000BBFH   SYMBOL    EDATA    WORD      CRC_Temp
L251 LINKER/LOCATER V4.66.93.0                                                        03/12/2024  22:09:15  PAGE 92


      00000BC1H   SYMBOL    EDATA    BYTE      i
      00000BC2H   SYMBOL    EDATA    BYTE      j
      00000939H   SYMBOL    EDATA    INT       data1
      0000093BH   SYMBOL    EDATA    INT       data2
      0000093DH   SYMBOL    EDATA    INT       data3
      0000093FH   SYMBOL    EDATA    INT       data4
      00000941H   SYMBOL    EDATA    ---       dat
      00000945H   SYMBOL    EDATA    WORD      CRC16

      ---         MODULE    ---      ---       SEEKFREE_WIRELESS
      00FF8E5CH   PUBLIC    CODE     ---       wireless_uart_callback
      000000D0H   SFRSYM    DATA     BYTE      PSW
      0000009DH   SFRSYM    DATA     BYTE      IRCBAND
      00000097H   SFRSYM    DATA     BYTE      AUXR2
      000000EFH   SFRSYM    DATA     BYTE      AUXINTIF
      000000FDH   SFRSYM    DATA     BYTE      S4CON
      000000ACH   SFRSYM    DATA     BYTE      S3CON
      0000009AH   SFRSYM    DATA     BYTE      S2CON
      000000FEH   SFRSYM    DATA     BYTE      S4BUF
      000000B7H   SFRSYM    DATA     BYTE      IPH
      000000CDH   SFRSYM    DATA     BYTE      SPSTAT
      000000DDH   SFRSYM    DATA     BYTE      T4T3M
      000000C1H   SFRSYM    DATA     BYTE      WDT_CONTR
      000000DFH   SFRSYM    DATA     BYTE      IP3
      000000F4H   SFRSYM    DATA     BYTE      USBCON
      000000B5H   SFRSYM    DATA     BYTE      IP2
      000000FFH   SFRSYM    DATA     BYTE      RSTCFG
      000000F9H   SFRSYM    DATA     BYTE      LINICR
      0000008EH   SFRSYM    DATA     BYTE      AUXR
      000000AFH   SFRSYM    DATA     BYTE      IE2
      000000C0H.3 SFRSYM    DATA     BIT       P43
      00000088H   SFRSYM    DATA     BYTE      TCON
      00000098H   SFRSYM    DATA     BYTE      SCON
      000000F1H   SFRSYM    DATA     BYTE      CANICR
      00000087H   SFRSYM    DATA     BYTE      PCON
      000000BCH   SFRSYM    DATA     BYTE      ADC_CONTR
      000000E7H   SFRSYM    DATA     BYTE      CMPCR2
      000000E6H   SFRSYM    DATA     BYTE      CMPCR1
      000000B8H   SFRSYM    DATA     BYTE      IP
      0000008FH   SFRSYM    DATA     BYTE      INTCLKO
      000000EEH   SFRSYM    DATA     BYTE      IP3H
      000000B6H   SFRSYM    DATA     BYTE      IP2H
      000000A8H   SFRSYM    DATA     BYTE      IE
      000000BBH   SFRSYM    DATA     BYTE      P_SW3
      000000BAH   SFRSYM    DATA     BYTE      P_SW2
      000000A2H   SFRSYM    DATA     BYTE      P_SW1
      000000CEH   SFRSYM    DATA     BYTE      SPCTL
      000000F8H   SFRSYM    DATA     BYTE      P7
      000000E8H   SFRSYM    DATA     BYTE      P6
      000000C8H   SFRSYM    DATA     BYTE      P5
      000000C0H   SFRSYM    DATA     BYTE      P4
      000000B0H   SFRSYM    DATA     BYTE      P3
      000000A0H   SFRSYM    DATA     BYTE      P2
      00000090H   SFRSYM    DATA     BYTE      P1
      00000080H   SFRSYM    DATA     BYTE      P0
      00000447H   SYMBOL    EDATA    BYTE      wireless_uart_data
      00000448H   SYMBOL    EDATA    ---       wireless_uart_fifo
      0000045FH   SYMBOL    EDATA    ---       wireless_uart_buffer

      00FF8E5CH   BLOCK     CODE     ---       LVL=0
      00FF8E5CH   LINE      CODE     ---       #48
      00FF8E5CH   LINE      CODE     ---       #51
      00FF8E62H   LINE      CODE     ---       #52
      00FF8E75H   LINE      CODE     ---       #53
      ---         BLOCKEND  ---      ---       LVL=0
L251 LINKER/LOCATER V4.66.93.0                                                        03/12/2024  22:09:15  PAGE 93


      00000C2CH   SYMBOL    EDATA    ---       buff
      00000C30H   SYMBOL    EDATA    DWORD     len
      00000A2EH   SYMBOL    EDATA    ---       buff
      00000A32H   SYMBOL    EDATA    DWORD     len
      00000A36H   SYMBOL    EDATA    DWORD     data_len

      ---         MODULE    ---      ---       SEEKFREE_WIRELESS_CH573
      00FF8E76H   PUBLIC    CODE     ---       wireless_ch573_callback
      000000D0H   SFRSYM    DATA     BYTE      PSW
      0000009DH   SFRSYM    DATA     BYTE      IRCBAND
      00000097H   SFRSYM    DATA     BYTE      AUXR2
      000000EFH   SFRSYM    DATA     BYTE      AUXINTIF
      000000FDH   SFRSYM    DATA     BYTE      S4CON
      000000ACH   SFRSYM    DATA     BYTE      S3CON
      0000009AH   SFRSYM    DATA     BYTE      S2CON
      000000FEH   SFRSYM    DATA     BYTE      S4BUF
      000000B7H   SFRSYM    DATA     BYTE      IPH
      000000CDH   SFRSYM    DATA     BYTE      SPSTAT
      000000DDH   SFRSYM    DATA     BYTE      T4T3M
      000000C1H   SFRSYM    DATA     BYTE      WDT_CONTR
      000000DFH   SFRSYM    DATA     BYTE      IP3
      000000F4H   SFRSYM    DATA     BYTE      USBCON
      000000B5H   SFRSYM    DATA     BYTE      IP2
      000000FFH   SFRSYM    DATA     BYTE      RSTCFG
      000000F9H   SFRSYM    DATA     BYTE      LINICR
      0000008EH   SFRSYM    DATA     BYTE      AUXR
      000000AFH   SFRSYM    DATA     BYTE      IE2
      00000080H.7 SFRSYM    DATA     BIT       P07
      00000088H   SFRSYM    DATA     BYTE      TCON
      00000098H   SFRSYM    DATA     BYTE      SCON
      000000F1H   SFRSYM    DATA     BYTE      CANICR
      00000087H   SFRSYM    DATA     BYTE      PCON
      000000BCH   SFRSYM    DATA     BYTE      ADC_CONTR
      000000E7H   SFRSYM    DATA     BYTE      CMPCR2
      000000E6H   SFRSYM    DATA     BYTE      CMPCR1
      000000B8H   SFRSYM    DATA     BYTE      IP
      0000008FH   SFRSYM    DATA     BYTE      INTCLKO
      000000EEH   SFRSYM    DATA     BYTE      IP3H
      000000B6H   SFRSYM    DATA     BYTE      IP2H
      000000A8H   SFRSYM    DATA     BYTE      IE
      000000BBH   SFRSYM    DATA     BYTE      P_SW3
      000000BAH   SFRSYM    DATA     BYTE      P_SW2
      000000A2H   SFRSYM    DATA     BYTE      P_SW1
      000000CEH   SFRSYM    DATA     BYTE      SPCTL
      000000F8H   SFRSYM    DATA     BYTE      P7
      000000E8H   SFRSYM    DATA     BYTE      P6
      000000C8H   SFRSYM    DATA     BYTE      P5
      000000C0H   SFRSYM    DATA     BYTE      P4
      000000B0H   SFRSYM    DATA     BYTE      P3
      000000A0H   SFRSYM    DATA     BYTE      P2
      00000090H   SFRSYM    DATA     BYTE      P1
      00000080H   SFRSYM    DATA     BYTE      P0
      0000049FH   SYMBOL    EDATA    ---       wireless_ch573_buffer
      000004DFH   SYMBOL    EDATA    BYTE      wireless_ch573_data
      000004E0H   SYMBOL    EDATA    ---       wireless_ch573_fifo

      00FF8E76H   BLOCK     CODE     ---       LVL=0
      00FF8E76H   LINE      CODE     ---       #47
      00FF8E76H   LINE      CODE     ---       #50
      00FF8E7CH   LINE      CODE     ---       #51
      00FF8E8FH   LINE      CODE     ---       #52
      ---         BLOCKEND  ---      ---       LVL=0
      00000CFDH   SYMBOL    EDATA    ---       buff
      00000D01H   SYMBOL    EDATA    WORD      len
      00000A3AH   SYMBOL    EDATA    ---       buff
L251 LINKER/LOCATER V4.66.93.0                                                        03/12/2024  22:09:15  PAGE 94


      00000A3EH   SYMBOL    EDATA    DWORD     len
      00000A42H   SYMBOL    EDATA    DWORD     data_len

      ---         MODULE    ---      ---       isr
      00FF88CBH   PUBLIC    CODE     ---       UART1_Isr
      00FF8DB4H   PUBLIC    CODE     ---       UART2_Isr
      00FF8DD2H   PUBLIC    CODE     ---       UART3_Isr
      00FF7D48H   PUBLIC    CODE     ---       UART4_Isr
      00FF8FA7H   PUBLIC    CODE     ---       INT0_Isr
      00FF000AH   PUBLIC    CODE     ---       INT1_Isr
      00FF8FAFH   PUBLIC    CODE     ---       INT2_Isr
      00FF8FB7H   PUBLIC    CODE     ---       INT3_Isr
      00FF8FBFH   PUBLIC    CODE     ---       INT4_Isr
      00FF000EH   PUBLIC    CODE     ---       TM0_Isr
      00FF000FH   PUBLIC    CODE     ---       TM1_Isr
      00FF8A52H   PUBLIC    CODE     ---       TM2_Isr
      00FF8FC7H   PUBLIC    CODE     ---       TM3_Isr
      00FF8FCFH   PUBLIC    CODE     ---       TM4_Isr
      000000D0H   SFRSYM    DATA     BYTE      PSW
      0000009DH   SFRSYM    DATA     BYTE      IRCBAND
      00000097H   SFRSYM    DATA     BYTE      AUXR2
      000000EFH   SFRSYM    DATA     BYTE      AUXINTIF
      000000FDH   SFRSYM    DATA     BYTE      S4CON
      000000ACH   SFRSYM    DATA     BYTE      S3CON
      0000009AH   SFRSYM    DATA     BYTE      S2CON
      000000B7H   SFRSYM    DATA     BYTE      IPH
      000000CDH   SFRSYM    DATA     BYTE      SPSTAT
      000000DDH   SFRSYM    DATA     BYTE      T4T3M
      000000C1H   SFRSYM    DATA     BYTE      WDT_CONTR
      000000DFH   SFRSYM    DATA     BYTE      IP3
      000000F4H   SFRSYM    DATA     BYTE      USBCON
      000000B5H   SFRSYM    DATA     BYTE      IP2
      000000FFH   SFRSYM    DATA     BYTE      RSTCFG
      000000C7H   SFRSYM    DATA     BYTE      IAP_CONTR
      000000F9H   SFRSYM    DATA     BYTE      LINICR
      0000008EH   SFRSYM    DATA     BYTE      AUXR
      000000AFH   SFRSYM    DATA     BYTE      IE2
      000000C8H.2 SFRSYM    DATA     BIT       P52
      00000088H   SFRSYM    DATA     BYTE      TCON
      00000098H   SFRSYM    DATA     BYTE      SCON
      000000F1H   SFRSYM    DATA     BYTE      CANICR
      00000087H   SFRSYM    DATA     BYTE      PCON
      00000099H   SFRSYM    DATA     BYTE      SBUF
      000000BCH   SFRSYM    DATA     BYTE      ADC_CONTR
      000000E7H   SFRSYM    DATA     BYTE      CMPCR2
      000000E6H   SFRSYM    DATA     BYTE      CMPCR1
      000000B8H   SFRSYM    DATA     BYTE      IP
      0000008FH   SFRSYM    DATA     BYTE      INTCLKO
      000000EEH   SFRSYM    DATA     BYTE      IP3H
      000000B6H   SFRSYM    DATA     BYTE      IP2H
      000000A8H   SFRSYM    DATA     BYTE      IE
      000000BBH   SFRSYM    DATA     BYTE      P_SW3
      000000BAH   SFRSYM    DATA     BYTE      P_SW2
      000000A2H   SFRSYM    DATA     BYTE      P_SW1
      000000CEH   SFRSYM    DATA     BYTE      SPCTL
      000000F8H   SFRSYM    DATA     BYTE      P7
      000000E8H   SFRSYM    DATA     BYTE      P6
      000000C8H   SFRSYM    DATA     BYTE      P5
      000000C0H   SFRSYM    DATA     BYTE      P4
      000000B0H   SFRSYM    DATA     BYTE      P3
      000000A0H   SFRSYM    DATA     BYTE      P2
      00000090H   SFRSYM    DATA     BYTE      P1
      00000080H   SFRSYM    DATA     BYTE      P0

      00FF88CBH   BLOCK     CODE     ---       LVL=0
L251 LINKER/LOCATER V4.66.93.0                                                        03/12/2024  22:09:15  PAGE 95


      00FF88CFH   BLOCK     CODE     NEAR LAB  LVL=1
      00000E07H   SYMBOL    EDATA    BYTE      res
      00000E08H   SYMBOL    EDATA    BYTE      dwon_count
      ---         BLOCKEND  ---      ---       LVL=1
      00FF88CBH   LINE      CODE     ---       #22
      00FF88CFH   LINE      CODE     ---       #23
      00FF88CFH   LINE      CODE     ---       #26
      00FF88D4H   LINE      CODE     ---       #28
      00FF88D7H   LINE      CODE     ---       #29
      00FF88DCH   LINE      CODE     ---       #30
      00FF88DCH   LINE      CODE     ---       #31
      00FF88E1H   LINE      CODE     ---       #33
      00FF88E4H   LINE      CODE     ---       #34
      00FF88EAH   LINE      CODE     ---       #36
      00FF88EFH   LINE      CODE     ---       #38
      00FF8901H   LINE      CODE     ---       #39
      00FF8905H   LINE      CODE     ---       #40
      00FF8907H   LINE      CODE     ---       #43
      00FF890CH   LINE      CODE     ---       #44
      00FF890CH   LINE      CODE     ---       #45
      ---         BLOCKEND  ---      ---       LVL=0

      00FF8DB4H   BLOCK     CODE     ---       LVL=0
      00FF8DB4H   LINE      CODE     ---       #49
      00FF8DB8H   LINE      CODE     ---       #51
      00FF8DBDH   LINE      CODE     ---       #53
      00FF8DC0H   LINE      CODE     ---       #54
      00FF8DC5H   LINE      CODE     ---       #55
      00FF8DC5H   LINE      CODE     ---       #56
      00FF8DCAH   LINE      CODE     ---       #58
      00FF8DCDH   LINE      CODE     ---       #61
      ---         BLOCKEND  ---      ---       LVL=0

      00FF8DD2H   BLOCK     CODE     ---       LVL=0
      00FF8DD2H   LINE      CODE     ---       #66
      00FF8DD6H   LINE      CODE     ---       #68
      00FF8DDBH   LINE      CODE     ---       #70
      00FF8DDEH   LINE      CODE     ---       #71
      00FF8DE3H   LINE      CODE     ---       #72
      00FF8DE3H   LINE      CODE     ---       #73
      00FF8DE8H   LINE      CODE     ---       #75
      00FF8DEBH   LINE      CODE     ---       #78
      ---         BLOCKEND  ---      ---       LVL=0

      00FF7D48H   BLOCK     CODE     ---       LVL=0
      00FF7D48H   LINE      CODE     ---       #83
      00FF7D5EH   LINE      CODE     ---       #85
      00FF7D63H   LINE      CODE     ---       #87
      00FF7D66H   LINE      CODE     ---       #88
      00FF7D6BH   LINE      CODE     ---       #89
      00FF7D6BH   LINE      CODE     ---       #90
      00FF7D70H   LINE      CODE     ---       #92
      00FF7D73H   LINE      CODE     ---       #95
      00FF7D7FH   LINE      CODE     ---       #97
      00FF7D82H   LINE      CODE     ---       #98
      00FF7D84H   LINE      CODE     ---       #99
      00FF7D90H   LINE      CODE     ---       #101
      00FF7D93H   LINE      CODE     ---       #102
      00FF7D95H   LINE      CODE     ---       #103
      00FF7DA1H   LINE      CODE     ---       #105
      00FF7DA4H   LINE      CODE     ---       #106
      00FF7DA4H   LINE      CODE     ---       #108
      ---         BLOCKEND  ---      ---       LVL=0

      00FF8FA7H   BLOCK     CODE     ---       LVL=0
L251 LINKER/LOCATER V4.66.93.0                                                        03/12/2024  22:09:15  PAGE 96


      00FF8FA7H   LINE      CODE     ---       #111
      00FF8FA9H   LINE      CODE     ---       #113
      00FF8FACH   LINE      CODE     ---       #114
      ---         BLOCKEND  ---      ---       LVL=0

      00FF000AH   BLOCK     CODE     ---       LVL=0
      00FF000AH   LINE      CODE     ---       #115
      00FF000AH   LINE      CODE     ---       #118
      ---         BLOCKEND  ---      ---       LVL=0

      00FF8FAFH   BLOCK     CODE     ---       LVL=0
      00FF8FAFH   LINE      CODE     ---       #119
      00FF8FB1H   LINE      CODE     ---       #121
      00FF8FB4H   LINE      CODE     ---       #122
      ---         BLOCKEND  ---      ---       LVL=0

      00FF8FB7H   BLOCK     CODE     ---       LVL=0
      00FF8FB7H   LINE      CODE     ---       #123
      00FF8FB9H   LINE      CODE     ---       #125
      00FF8FBCH   LINE      CODE     ---       #126
      ---         BLOCKEND  ---      ---       LVL=0

      00FF8FBFH   BLOCK     CODE     ---       LVL=0
      00FF8FBFH   LINE      CODE     ---       #128
      00FF8FC1H   LINE      CODE     ---       #130
      00FF8FC4H   LINE      CODE     ---       #131
      ---         BLOCKEND  ---      ---       LVL=0

      00FF000EH   BLOCK     CODE     ---       LVL=0
      00FF000EH   LINE      CODE     ---       #133
      00FF000EH   LINE      CODE     ---       #136
      ---         BLOCKEND  ---      ---       LVL=0

      00FF000FH   BLOCK     CODE     ---       LVL=0
      00FF000FH   LINE      CODE     ---       #137
      00FF000FH   LINE      CODE     ---       #140
      ---         BLOCKEND  ---      ---       LVL=0

      00FF8A52H   BLOCK     CODE     ---       LVL=0
      00FF8A52H   LINE      CODE     ---       #141
      00FF8A68H   LINE      CODE     ---       #143
      00FF8A6BH   LINE      CODE     ---       #144
      00FF8A6EH   LINE      CODE     ---       #145
      00FF8A71H   LINE      CODE     ---       #147
      00FF8A74H   LINE      CODE     ---       #148
      00FF8A77H   LINE      CODE     ---       #150
      ---         BLOCKEND  ---      ---       LVL=0

      00FF8FC7H   BLOCK     CODE     ---       LVL=0
      00FF8FC7H   LINE      CODE     ---       #151
      00FF8FC9H   LINE      CODE     ---       #153
      00FF8FCCH   LINE      CODE     ---       #155
      ---         BLOCKEND  ---      ---       LVL=0

      00FF8FCFH   BLOCK     CODE     ---       LVL=0
      00FF8FCFH   LINE      CODE     ---       #157
      00FF8FD1H   LINE      CODE     ---       #159
      00FF8FD4H   LINE      CODE     ---       #162
      ---         BLOCKEND  ---      ---       LVL=0

      ---         MODULE    ---      ---       main
      00FF6AEEH   PUBLIC    CODE     ---       main
      000000D0H   SFRSYM    DATA     BYTE      PSW
      0000009DH   SFRSYM    DATA     BYTE      IRCBAND
      00000097H   SFRSYM    DATA     BYTE      AUXR2
L251 LINKER/LOCATER V4.66.93.0                                                        03/12/2024  22:09:15  PAGE 97


      000000EFH   SFRSYM    DATA     BYTE      AUXINTIF
      000000FDH   SFRSYM    DATA     BYTE      S4CON
      000000ACH   SFRSYM    DATA     BYTE      S3CON
      0000009AH   SFRSYM    DATA     BYTE      S2CON
      000000B7H   SFRSYM    DATA     BYTE      IPH
      000000CDH   SFRSYM    DATA     BYTE      SPSTAT
      000000DDH   SFRSYM    DATA     BYTE      T4T3M
      000000C1H   SFRSYM    DATA     BYTE      WDT_CONTR
      000000DFH   SFRSYM    DATA     BYTE      IP3
      000000F4H   SFRSYM    DATA     BYTE      USBCON
      000000B5H   SFRSYM    DATA     BYTE      IP2
      000000FFH   SFRSYM    DATA     BYTE      RSTCFG
      000000F9H   SFRSYM    DATA     BYTE      LINICR
      0000008EH   SFRSYM    DATA     BYTE      AUXR
      000000AFH   SFRSYM    DATA     BYTE      IE2
      00000088H   SFRSYM    DATA     BYTE      TCON
      00000098H   SFRSYM    DATA     BYTE      SCON
      000000F1H   SFRSYM    DATA     BYTE      CANICR
      00000087H   SFRSYM    DATA     BYTE      PCON
      000000BCH   SFRSYM    DATA     BYTE      ADC_CONTR
      000000E7H   SFRSYM    DATA     BYTE      CMPCR2
      000000E6H   SFRSYM    DATA     BYTE      CMPCR1
      000000B8H   SFRSYM    DATA     BYTE      IP
      0000008FH   SFRSYM    DATA     BYTE      INTCLKO
      000000EEH   SFRSYM    DATA     BYTE      IP3H
      000000B6H   SFRSYM    DATA     BYTE      IP2H
      000000A8H   SFRSYM    DATA     BYTE      IE
      000000BBH   SFRSYM    DATA     BYTE      P_SW3
      000000BAH   SFRSYM    DATA     BYTE      P_SW2
      000000A2H   SFRSYM    DATA     BYTE      P_SW1
      000000CEH   SFRSYM    DATA     BYTE      SPCTL
      000000F8H   SFRSYM    DATA     BYTE      P7
      000000E8H   SFRSYM    DATA     BYTE      P6
      000000C8H   SFRSYM    DATA     BYTE      P5
      000000C0H   SFRSYM    DATA     BYTE      P4
      000000B0H   SFRSYM    DATA     BYTE      P3
      000000A0H   SFRSYM    DATA     BYTE      P2
      00000090H   SFRSYM    DATA     BYTE      P1
      00000080H   SFRSYM    DATA     BYTE      P0

      00FF6AEEH   BLOCK     CODE     ---       LVL=0
      00FF6AEEH   LINE      CODE     ---       #31
      00FF6AEEH   LINE      CODE     ---       #34
      00FF6AF1H   LINE      CODE     ---       #37
      00FF6AF1H   LINE      CODE     ---       #40
      00FF6AF4H   LINE      CODE     ---       #41
      00FF6AF7H   LINE      CODE     ---       #52
      00FF6B09H   LINE      CODE     ---       #53
      00FF6B1DH   LINE      CODE     ---       #62
      00FF6B3FH   LINE      CODE     ---       #63
      00FF6B61H   LINE      CODE     ---       #66
      00FF6B83H   LINE      CODE     ---       #67
      00FF6BA7H   LINE      CODE     ---       #68
      00FF6BCBH   LINE      CODE     ---       #69
      00FF6BEDH   LINE      CODE     ---       #70
      00FF6C11H   LINE      CODE     ---       #71
      00FF6C35H   LINE      CODE     ---       #72
      00FF6C38H   LINE      CODE     ---       #73
      ---         BLOCKEND  ---      ---       LVL=0

      ---         MODULE    ---      ---       All_init
      00FF8CCAH   PUBLIC    CODE     ---       All_init
      000000D0H   SFRSYM    DATA     BYTE      PSW
      0000009DH   SFRSYM    DATA     BYTE      IRCBAND
      00000097H   SFRSYM    DATA     BYTE      AUXR2
L251 LINKER/LOCATER V4.66.93.0                                                        03/12/2024  22:09:15  PAGE 98


      000000EFH   SFRSYM    DATA     BYTE      AUXINTIF
      000000FDH   SFRSYM    DATA     BYTE      S4CON
      000000ACH   SFRSYM    DATA     BYTE      S3CON
      0000009AH   SFRSYM    DATA     BYTE      S2CON
      000000B7H   SFRSYM    DATA     BYTE      IPH
      000000CDH   SFRSYM    DATA     BYTE      SPSTAT
      000000DDH   SFRSYM    DATA     BYTE      T4T3M
      000000C1H   SFRSYM    DATA     BYTE      WDT_CONTR
      000000DFH   SFRSYM    DATA     BYTE      IP3
      000000F4H   SFRSYM    DATA     BYTE      USBCON
      000000B5H   SFRSYM    DATA     BYTE      IP2
      000000FFH   SFRSYM    DATA     BYTE      RSTCFG
      000000F9H   SFRSYM    DATA     BYTE      LINICR
      0000008EH   SFRSYM    DATA     BYTE      AUXR
      000000AFH   SFRSYM    DATA     BYTE      IE2
      00000088H   SFRSYM    DATA     BYTE      TCON
      00000098H   SFRSYM    DATA     BYTE      SCON
      000000F1H   SFRSYM    DATA     BYTE      CANICR
      00000087H   SFRSYM    DATA     BYTE      PCON
      000000BCH   SFRSYM    DATA     BYTE      ADC_CONTR
      000000E7H   SFRSYM    DATA     BYTE      CMPCR2
      000000E6H   SFRSYM    DATA     BYTE      CMPCR1
      000000B8H   SFRSYM    DATA     BYTE      IP
      0000008FH   SFRSYM    DATA     BYTE      INTCLKO
      000000EEH   SFRSYM    DATA     BYTE      IP3H
      000000B6H   SFRSYM    DATA     BYTE      IP2H
      000000A8H   SFRSYM    DATA     BYTE      IE
      000000BBH   SFRSYM    DATA     BYTE      P_SW3
      000000BAH   SFRSYM    DATA     BYTE      P_SW2
      000000A2H   SFRSYM    DATA     BYTE      P_SW1
      000000CEH   SFRSYM    DATA     BYTE      SPCTL
      000000F8H   SFRSYM    DATA     BYTE      P7
      000000E8H   SFRSYM    DATA     BYTE      P6
      000000C8H   SFRSYM    DATA     BYTE      P5
      000000C0H   SFRSYM    DATA     BYTE      P4
      000000B0H   SFRSYM    DATA     BYTE      P3
      000000A0H   SFRSYM    DATA     BYTE      P2
      00000090H   SFRSYM    DATA     BYTE      P1
      00000080H   SFRSYM    DATA     BYTE      P0

      00FF8CCAH   BLOCK     CODE     ---       LVL=0
      00FF8CCAH   LINE      CODE     ---       #3
      00FF8CCAH   LINE      CODE     ---       #6
      00FF8CCDH   LINE      CODE     ---       #7
      00FF8CD0H   LINE      CODE     ---       #11
      00FF8CD3H   LINE      CODE     ---       #12
      00FF8CD6H   LINE      CODE     ---       #13
      00FF8CD9H   LINE      CODE     ---       #14
      00FF8CDCH   LINE      CODE     ---       #15
      00FF8CDFH   LINE      CODE     ---       #17
      00FF8CE2H   LINE      CODE     ---       #19
      00FF8CEDH   LINE      CODE     ---       #23
      ---         BLOCKEND  ---      ---       LVL=0

      ---         MODULE    ---      ---       Motor
      00FF7799H   PUBLIC    CODE     ---       Motor_Ctrl
      00FF89D4H   PUBLIC    CODE     ---       Motor_init
      000000D0H   SFRSYM    DATA     BYTE      PSW
      0000009DH   SFRSYM    DATA     BYTE      IRCBAND
      00000097H   SFRSYM    DATA     BYTE      AUXR2
      000000EFH   SFRSYM    DATA     BYTE      AUXINTIF
      000000FDH   SFRSYM    DATA     BYTE      S4CON
      000000ACH   SFRSYM    DATA     BYTE      S3CON
      0000009AH   SFRSYM    DATA     BYTE      S2CON
      000000B7H   SFRSYM    DATA     BYTE      IPH
L251 LINKER/LOCATER V4.66.93.0                                                        03/12/2024  22:09:15  PAGE 99


      000000CDH   SFRSYM    DATA     BYTE      SPSTAT
      000000DDH   SFRSYM    DATA     BYTE      T4T3M
      000000C1H   SFRSYM    DATA     BYTE      WDT_CONTR
      000000DFH   SFRSYM    DATA     BYTE      IP3
      000000F4H   SFRSYM    DATA     BYTE      USBCON
      000000B5H   SFRSYM    DATA     BYTE      IP2
      000000FFH   SFRSYM    DATA     BYTE      RSTCFG
      000000F9H   SFRSYM    DATA     BYTE      LINICR
      0000008EH   SFRSYM    DATA     BYTE      AUXR
      000000AFH   SFRSYM    DATA     BYTE      IE2
      000000E8H.2 SFRSYM    DATA     BIT       P62
      000000E8H.1 SFRSYM    DATA     BIT       P61
      00000088H   SFRSYM    DATA     BYTE      TCON
      00000098H   SFRSYM    DATA     BYTE      SCON
      000000F1H   SFRSYM    DATA     BYTE      CANICR
      00000087H   SFRSYM    DATA     BYTE      PCON
      000000BCH   SFRSYM    DATA     BYTE      ADC_CONTR
      000000E7H   SFRSYM    DATA     BYTE      CMPCR2
      000000E6H   SFRSYM    DATA     BYTE      CMPCR1
      000000B8H   SFRSYM    DATA     BYTE      IP
      0000008FH   SFRSYM    DATA     BYTE      INTCLKO
      000000EEH   SFRSYM    DATA     BYTE      IP3H
      000000B6H   SFRSYM    DATA     BYTE      IP2H
      000000A8H   SFRSYM    DATA     BYTE      IE
      000000BBH   SFRSYM    DATA     BYTE      P_SW3
      000000BAH   SFRSYM    DATA     BYTE      P_SW2
      000000A2H   SFRSYM    DATA     BYTE      P_SW1
      000000CEH   SFRSYM    DATA     BYTE      SPCTL
      000000F8H   SFRSYM    DATA     BYTE      P7
      000000E8H   SFRSYM    DATA     BYTE      P6
      000000C8H   SFRSYM    DATA     BYTE      P5
      000000C0H   SFRSYM    DATA     BYTE      P4
      000000B0H   SFRSYM    DATA     BYTE      P3
      000000A0H   SFRSYM    DATA     BYTE      P2
      00000090H   SFRSYM    DATA     BYTE      P1
      00000080H   SFRSYM    DATA     BYTE      P0

      00FF89D4H   BLOCK     CODE     ---       LVL=0
      00FF89D4H   LINE      CODE     ---       #2
      00FF89D4H   LINE      CODE     ---       #4
      00FF89E5H   LINE      CODE     ---       #5
      00FF89F0H   LINE      CODE     ---       #6
      00FF89F3H   LINE      CODE     ---       #8
      00FF8A04H   LINE      CODE     ---       #9
      00FF8A0FH   LINE      CODE     ---       #10
      00FF8A12H   LINE      CODE     ---       #11
      ---         BLOCKEND  ---      ---       LVL=0

      00FF7799H   BLOCK     CODE     ---       LVL=0
      00FF7799H   LINE      CODE     ---       #12
      00FF7799H   LINE      CODE     ---       #14
      00FF77AEH   LINE      CODE     ---       #15
      00FF77B9H   LINE      CODE     ---       #17
      00FF77BCH   LINE      CODE     ---       #18
      00FF77D0H   LINE      CODE     ---       #19
      00FF77D2H   LINE      CODE     ---       #22
      00FF77D5H   LINE      CODE     ---       #23
      00FF77F2H   LINE      CODE     ---       #24
      00FF77F2H   LINE      CODE     ---       #25
      00FF77FDH   LINE      CODE     ---       #27
      00FF7800H   LINE      CODE     ---       #28
      00FF7814H   LINE      CODE     ---       #29
      00FF7816H   LINE      CODE     ---       #32
      00FF7819H   LINE      CODE     ---       #33
      00FF7836H   LINE      CODE     ---       #34
L251 LINKER/LOCATER V4.66.93.0                                                        03/12/2024  22:09:15  PAGE 100


      00FF7838H   LINE      CODE     ---       #37
      00FF7841H   LINE      CODE     ---       #38
      00FF784AH   LINE      CODE     ---       #39
      00FF784AH   LINE      CODE     ---       #40
      ---         BLOCKEND  ---      ---       LVL=0

      ---         MODULE    ---      ---       Key
      00FF6EC8H   PUBLIC    CODE     ---       Key_Scan
      00FF78F0H   PUBLIC    CODE     ---       Key_init
      00FF74A6H   PUBLIC    CODE     ---       Key_Screen
      0000079EH   PUBLIC    EDATA    DWORD     KEYCENTER_Flag
      000007A2H   PUBLIC    EDATA    DWORD     KEYUp_Flag
      000007A6H   PUBLIC    EDATA    DWORD     Screen_Page
      000007AAH   PUBLIC    EDATA    DWORD     KEYRight_Flag
      000007AEH   PUBLIC    EDATA    DWORD     KEYS1_Flag
      000007B2H   PUBLIC    EDATA    DWORD     KEYS2_Flag
      000007B6H   PUBLIC    EDATA    DWORD     KEYLeft_Flag
      000007BAH   PUBLIC    EDATA    DWORD     KEYDown_Flag
      000007BEH   PUBLIC    EDATA    DWORD     Pid_Choose
      000000D0H   SFRSYM    DATA     BYTE      PSW
      0000009DH   SFRSYM    DATA     BYTE      IRCBAND
      00000097H   SFRSYM    DATA     BYTE      AUXR2
      000000EFH   SFRSYM    DATA     BYTE      AUXINTIF
      000000FDH   SFRSYM    DATA     BYTE      S4CON
      000000ACH   SFRSYM    DATA     BYTE      S3CON
      0000009AH   SFRSYM    DATA     BYTE      S2CON
      000000B7H   SFRSYM    DATA     BYTE      IPH
      000000CDH   SFRSYM    DATA     BYTE      SPSTAT
      000000DDH   SFRSYM    DATA     BYTE      T4T3M
      000000C1H   SFRSYM    DATA     BYTE      WDT_CONTR
      000000DFH   SFRSYM    DATA     BYTE      IP3
      000000F4H   SFRSYM    DATA     BYTE      USBCON
      000000B5H   SFRSYM    DATA     BYTE      IP2
      000000FFH   SFRSYM    DATA     BYTE      RSTCFG
      000000F9H   SFRSYM    DATA     BYTE      LINICR
      0000008EH   SFRSYM    DATA     BYTE      AUXR
      000000AFH   SFRSYM    DATA     BYTE      IE2
      000000B0H.7 SFRSYM    DATA     BIT       P37
      000000B0H.6 SFRSYM    DATA     BIT       P36
      000000F8H.2 SFRSYM    DATA     BIT       P72
      000000F8H.1 SFRSYM    DATA     BIT       P71
      000000F8H.0 SFRSYM    DATA     BIT       P70
      00000088H   SFRSYM    DATA     BYTE      TCON
      000000C0H.1 SFRSYM    DATA     BIT       P41
      00000098H   SFRSYM    DATA     BYTE      SCON
      000000F1H   SFRSYM    DATA     BYTE      CANICR
      00000080H.1 SFRSYM    DATA     BIT       P01
      00000087H   SFRSYM    DATA     BYTE      PCON
      000000BCH   SFRSYM    DATA     BYTE      ADC_CONTR
      000000E7H   SFRSYM    DATA     BYTE      CMPCR2
      000000E6H   SFRSYM    DATA     BYTE      CMPCR1
      000000B8H   SFRSYM    DATA     BYTE      IP
      0000008FH   SFRSYM    DATA     BYTE      INTCLKO
      000000EEH   SFRSYM    DATA     BYTE      IP3H
      000000B6H   SFRSYM    DATA     BYTE      IP2H
      000000A8H   SFRSYM    DATA     BYTE      IE
      000000BBH   SFRSYM    DATA     BYTE      P_SW3
      000000BAH   SFRSYM    DATA     BYTE      P_SW2
      000000A2H   SFRSYM    DATA     BYTE      P_SW1
      000000CEH   SFRSYM    DATA     BYTE      SPCTL
      000000F8H   SFRSYM    DATA     BYTE      P7
      000000E8H   SFRSYM    DATA     BYTE      P6
      000000C8H   SFRSYM    DATA     BYTE      P5
      000000C0H   SFRSYM    DATA     BYTE      P4
      000000B0H   SFRSYM    DATA     BYTE      P3
L251 LINKER/LOCATER V4.66.93.0                                                        03/12/2024  22:09:15  PAGE 101


      000000A0H   SFRSYM    DATA     BYTE      P2
      00000090H   SFRSYM    DATA     BYTE      P1
      00000080H   SFRSYM    DATA     BYTE      P0

      00FF78F0H   BLOCK     CODE     ---       LVL=0
      00FF78F0H   LINE      CODE     ---       #12
      00FF78F0H   LINE      CODE     ---       #14
      00FF78FBH   LINE      CODE     ---       #15
      00FF7906H   LINE      CODE     ---       #16
      00FF7911H   LINE      CODE     ---       #17
      00FF791CH   LINE      CODE     ---       #18
      00FF7927H   LINE      CODE     ---       #19
      00FF7932H   LINE      CODE     ---       #20
      00FF793DH   LINE      CODE     ---       #21
      00FF7948H   LINE      CODE     ---       #22
      00FF7953H   LINE      CODE     ---       #23
      00FF795EH   LINE      CODE     ---       #24
      00FF7969H   LINE      CODE     ---       #25
      00FF7974H   LINE      CODE     ---       #26
      00FF797FH   LINE      CODE     ---       #27
      00FF798AH   LINE      CODE     ---       #28
      ---         BLOCKEND  ---      ---       LVL=0

      00FF6EC8H   BLOCK     CODE     ---       LVL=0
      00FF6EC8H   LINE      CODE     ---       #30
      00FF6EC8H   LINE      CODE     ---       #32
      00FF6ED1H   LINE      CODE     ---       #34
      00FF6ED8H   LINE      CODE     ---       #35
      00FF6EE1H   LINE      CODE     ---       #37
      00FF6EE9H   LINE      CODE     ---       #38
      00FF6EE9H   LINE      CODE     ---       #39
      00FF6EF2H   LINE      CODE     ---       #40
      00FF6EF2H   LINE      CODE     ---       #42
      00FF6EFBH   LINE      CODE     ---       #44
      00FF6F02H   LINE      CODE     ---       #45
      00FF6F0BH   LINE      CODE     ---       #47
      00FF6F13H   LINE      CODE     ---       #48
      00FF6F13H   LINE      CODE     ---       #49
      00FF6F1CH   LINE      CODE     ---       #50
      00FF6F1CH   LINE      CODE     ---       #52
      00FF6F25H   LINE      CODE     ---       #54
      00FF6F2CH   LINE      CODE     ---       #55
      00FF6F35H   LINE      CODE     ---       #57
      00FF6F3DH   LINE      CODE     ---       #58
      00FF6F3DH   LINE      CODE     ---       #59
      00FF6F46H   LINE      CODE     ---       #60
      00FF6F46H   LINE      CODE     ---       #62
      00FF6F4FH   LINE      CODE     ---       #64
      00FF6F56H   LINE      CODE     ---       #65
      00FF6F5FH   LINE      CODE     ---       #67
      00FF6F67H   LINE      CODE     ---       #68
      00FF6F67H   LINE      CODE     ---       #69
      00FF6F70H   LINE      CODE     ---       #70
      00FF6F70H   LINE      CODE     ---       #72
      00FF6F79H   LINE      CODE     ---       #74
      00FF6F80H   LINE      CODE     ---       #75
      00FF6F89H   LINE      CODE     ---       #77
      00FF6F91H   LINE      CODE     ---       #78
      00FF6F91H   LINE      CODE     ---       #79
      00FF6F9AH   LINE      CODE     ---       #80
      00FF6F9AH   LINE      CODE     ---       #82
      00FF6FA3H   LINE      CODE     ---       #84
      00FF6FAAH   LINE      CODE     ---       #85
      00FF6FB3H   LINE      CODE     ---       #87
      00FF6FBBH   LINE      CODE     ---       #88
L251 LINKER/LOCATER V4.66.93.0                                                        03/12/2024  22:09:15  PAGE 102


      00FF6FBBH   LINE      CODE     ---       #89
      00FF6FC4H   LINE      CODE     ---       #90
      00FF6FC4H   LINE      CODE     ---       #92
      00FF6FCDH   LINE      CODE     ---       #94
      00FF6FD4H   LINE      CODE     ---       #95
      00FF6FDDH   LINE      CODE     ---       #97
      00FF6FE5H   LINE      CODE     ---       #98
      00FF6FE5H   LINE      CODE     ---       #99
      00FF6FEEH   LINE      CODE     ---       #100
      ---         BLOCKEND  ---      ---       LVL=0

      00FF74A6H   BLOCK     CODE     ---       LVL=0
      00FF74A6H   LINE      CODE     ---       #104
      00FF74A6H   LINE      CODE     ---       #106
      00FF74B0H   LINE      CODE     ---       #108
      00FF74BAH   LINE      CODE     ---       #109
      00FF74CAH   LINE      CODE     ---       #111
      00FF74D2H   LINE      CODE     ---       #112
      00FF74D5H   LINE      CODE     ---       #113
      00FF74DBH   LINE      CODE     ---       #114
      00FF74DBH   LINE      CODE     ---       #115
      00FF74EFH   LINE      CODE     ---       #117
      00FF74F9H   LINE      CODE     ---       #119
      00FF7503H   LINE      CODE     ---       #120
      00FF7513H   LINE      CODE     ---       #121
      00FF751BH   LINE      CODE     ---       #122
      00FF751EH   LINE      CODE     ---       #123
      00FF7524H   LINE      CODE     ---       #124
      00FF7524H   LINE      CODE     ---       #126
      00FF752EH   LINE      CODE     ---       #128
      00FF7531H   LINE      CODE     ---       #129
      00FF7537H   LINE      CODE     ---       #130
      00FF7537H   LINE      CODE     ---       #131
      00FF7541H   LINE      CODE     ---       #133
      00FF7544H   LINE      CODE     ---       #134
      00FF754AH   LINE      CODE     ---       #135
      00FF754AH   LINE      CODE     ---       #136
      00FF7554H   LINE      CODE     ---       #138
      00FF7557H   LINE      CODE     ---       #139
      00FF755DH   LINE      CODE     ---       #140
      00FF755DH   LINE      CODE     ---       #141
      00FF7567H   LINE      CODE     ---       #143
      00FF756AH   LINE      CODE     ---       #144
      00FF7570H   LINE      CODE     ---       #145
      ---         BLOCKEND  ---      ---       LVL=0

      ---         MODULE    ---      ---       Screen
      00FF698EH   PUBLIC    CODE     ---       Screen_Choose_Page
      00FF832DH   PUBLIC    CODE     ---       Screen_Choose_Pid
      00FF5C68H   PUBLIC    CODE     ---       Screen_Pid_MINDecrease
      00FF5E33H   PUBLIC    CODE     ---       Screen_Pid_MAXDecrease
      00FF5FFEH   PUBLIC    CODE     ---       Screen_Pid_MINIncrease
      00FF61C9H   PUBLIC    CODE     ---       Screen_Pid_MAXIncrease
      00FF8F9CH   PUBLIC    CODE     ---       Screen_init
      000000D0H   SFRSYM    DATA     BYTE      PSW
      0000009DH   SFRSYM    DATA     BYTE      IRCBAND
      00000097H   SFRSYM    DATA     BYTE      AUXR2
      000000EFH   SFRSYM    DATA     BYTE      AUXINTIF
      000000FDH   SFRSYM    DATA     BYTE      S4CON
      000000ACH   SFRSYM    DATA     BYTE      S3CON
      0000009AH   SFRSYM    DATA     BYTE      S2CON
      000000B7H   SFRSYM    DATA     BYTE      IPH
      000000CDH   SFRSYM    DATA     BYTE      SPSTAT
      000000DDH   SFRSYM    DATA     BYTE      T4T3M
      000000C1H   SFRSYM    DATA     BYTE      WDT_CONTR
L251 LINKER/LOCATER V4.66.93.0                                                        03/12/2024  22:09:15  PAGE 103


      000000DFH   SFRSYM    DATA     BYTE      IP3
      000000F4H   SFRSYM    DATA     BYTE      USBCON
      000000B5H   SFRSYM    DATA     BYTE      IP2
      000000FFH   SFRSYM    DATA     BYTE      RSTCFG
      000000F9H   SFRSYM    DATA     BYTE      LINICR
      0000008EH   SFRSYM    DATA     BYTE      AUXR
      000000AFH   SFRSYM    DATA     BYTE      IE2
      00000088H   SFRSYM    DATA     BYTE      TCON
      00000098H   SFRSYM    DATA     BYTE      SCON
      000000F1H   SFRSYM    DATA     BYTE      CANICR
      00000087H   SFRSYM    DATA     BYTE      PCON
      000000BCH   SFRSYM    DATA     BYTE      ADC_CONTR
      000000E7H   SFRSYM    DATA     BYTE      CMPCR2
      000000E6H   SFRSYM    DATA     BYTE      CMPCR1
      000000B8H   SFRSYM    DATA     BYTE      IP
      0000008FH   SFRSYM    DATA     BYTE      INTCLKO
      000000EEH   SFRSYM    DATA     BYTE      IP3H
      000000B6H   SFRSYM    DATA     BYTE      IP2H
      000000A8H   SFRSYM    DATA     BYTE      IE
      000000BBH   SFRSYM    DATA     BYTE      P_SW3
      000000BAH   SFRSYM    DATA     BYTE      P_SW2
      000000A2H   SFRSYM    DATA     BYTE      P_SW1
      000000CEH   SFRSYM    DATA     BYTE      SPCTL
      000000F8H   SFRSYM    DATA     BYTE      P7
      000000E8H   SFRSYM    DATA     BYTE      P6
      000000C8H   SFRSYM    DATA     BYTE      P5
      000000C0H   SFRSYM    DATA     BYTE      P4
      000000B0H   SFRSYM    DATA     BYTE      P3
      000000A0H   SFRSYM    DATA     BYTE      P2
      00000090H   SFRSYM    DATA     BYTE      P1
      00000080H   SFRSYM    DATA     BYTE      P0

      00FF8F9CH   BLOCK     CODE     ---       LVL=0
      00FF8F9CH   LINE      CODE     ---       #2
      00FF8F9CH   LINE      CODE     ---       #4
      00FF8F9FH   LINE      CODE     ---       #5
      00FF8FA6H   LINE      CODE     ---       #6
      ---         BLOCKEND  ---      ---       LVL=0

      00FF698EH   BLOCK     CODE     ---       LVL=0
      00FF698EH   LINE      CODE     ---       #9
      00FF698EH   LINE      CODE     ---       #12
      00FF699BH   LINE      CODE     ---       #14
      00FF69A2H   LINE      CODE     ---       #15
      00FF69B3H   LINE      CODE     ---       #16
      00FF69C6H   LINE      CODE     ---       #17
      00FF69D9H   LINE      CODE     ---       #18
      00FF69EEH   LINE      CODE     ---       #19
      00FF6A05H   LINE      CODE     ---       #20
      00FF6A1CH   LINE      CODE     ---       #21
      00FF6A31H   LINE      CODE     ---       #22
      00FF6A48H   LINE      CODE     ---       #23
      00FF6A5FH   LINE      CODE     ---       #24
      00FF6A5FH   LINE      CODE     ---       #26
      00FF6A6CH   LINE      CODE     ---       #28
      00FF6A73H   LINE      CODE     ---       #29
      00FF6A84H   LINE      CODE     ---       #30
      00FF6A97H   LINE      CODE     ---       #31
      00FF6AAAH   LINE      CODE     ---       #32
      00FF6ABFH   LINE      CODE     ---       #33
      00FF6AD6H   LINE      CODE     ---       #34
      00FF6AEDH   LINE      CODE     ---       #35
      ---         BLOCKEND  ---      ---       LVL=0

      00FF832DH   BLOCK     CODE     ---       LVL=0
L251 LINKER/LOCATER V4.66.93.0                                                        03/12/2024  22:09:15  PAGE 104


      00FF832DH   LINE      CODE     ---       #39
      00FF832DH   LINE      CODE     ---       #41
      00FF8337H   LINE      CODE     ---       #43
      00FF833AH   LINE      CODE     ---       #44
      00FF8349H   LINE      CODE     ---       #45
      00FF8349H   LINE      CODE     ---       #46
      00FF8353H   LINE      CODE     ---       #48
      00FF8356H   LINE      CODE     ---       #49
      00FF8367H   LINE      CODE     ---       #50
      00FF8367H   LINE      CODE     ---       #51
      00FF8371H   LINE      CODE     ---       #53
      00FF8374H   LINE      CODE     ---       #54
      00FF8385H   LINE      CODE     ---       #55
      ---         BLOCKEND  ---      ---       LVL=0

      00FF61C9H   BLOCK     CODE     ---       LVL=0
      00FF61C9H   LINE      CODE     ---       #59
      00FF61C9H   LINE      CODE     ---       #61
      00FF61D6H   LINE      CODE     ---       #63
      00FF61E0H   LINE      CODE     ---       #65
      00FF61F3H   LINE      CODE     ---       #66
      00FF6206H   LINE      CODE     ---       #67
      00FF621BH   LINE      CODE     ---       #68
      00FF6230H   LINE      CODE     ---       #69
      00FF6230H   LINE      CODE     ---       #70
      00FF623AH   LINE      CODE     ---       #72
      00FF624DH   LINE      CODE     ---       #73
      00FF6260H   LINE      CODE     ---       #74
      00FF6277H   LINE      CODE     ---       #75
      00FF628EH   LINE      CODE     ---       #76
      00FF628EH   LINE      CODE     ---       #77
      00FF6298H   LINE      CODE     ---       #79
      00FF62ABH   LINE      CODE     ---       #80
      00FF62BEH   LINE      CODE     ---       #81
      00FF62D5H   LINE      CODE     ---       #82
      00FF62ECH   LINE      CODE     ---       #83
      00FF62ECH   LINE      CODE     ---       #85
      00FF62F9H   LINE      CODE     ---       #87
      00FF6303H   LINE      CODE     ---       #89
      00FF6316H   LINE      CODE     ---       #90
      00FF632BH   LINE      CODE     ---       #91
      00FF632BH   LINE      CODE     ---       #92
      00FF6335H   LINE      CODE     ---       #94
      00FF6348H   LINE      CODE     ---       #95
      00FF635FH   LINE      CODE     ---       #96
      00FF635FH   LINE      CODE     ---       #97
      00FF6369H   LINE      CODE     ---       #99
      00FF637CH   LINE      CODE     ---       #100
      00FF6393H   LINE      CODE     ---       #101
      00FF6393H   LINE      CODE     ---       #103
      ---         BLOCKEND  ---      ---       LVL=0

      00FF5E33H   BLOCK     CODE     ---       LVL=0
      00FF5E33H   LINE      CODE     ---       #106
      00FF5E33H   LINE      CODE     ---       #108
      00FF5E40H   LINE      CODE     ---       #110
      00FF5E4AH   LINE      CODE     ---       #112
      00FF5E5DH   LINE      CODE     ---       #113
      00FF5E70H   LINE      CODE     ---       #114
      00FF5E85H   LINE      CODE     ---       #115
      00FF5E9AH   LINE      CODE     ---       #116
      00FF5E9AH   LINE      CODE     ---       #117
      00FF5EA4H   LINE      CODE     ---       #119
      00FF5EB7H   LINE      CODE     ---       #120
      00FF5ECAH   LINE      CODE     ---       #121
L251 LINKER/LOCATER V4.66.93.0                                                        03/12/2024  22:09:15  PAGE 105


      00FF5EE1H   LINE      CODE     ---       #122
      00FF5EF8H   LINE      CODE     ---       #123
      00FF5EF8H   LINE      CODE     ---       #124
      00FF5F02H   LINE      CODE     ---       #126
      00FF5F15H   LINE      CODE     ---       #127
      00FF5F28H   LINE      CODE     ---       #128
      00FF5F3FH   LINE      CODE     ---       #129
      00FF5F56H   LINE      CODE     ---       #130
      00FF5F56H   LINE      CODE     ---       #132
      00FF5F63H   LINE      CODE     ---       #134
      00FF5F6DH   LINE      CODE     ---       #136
      00FF5F80H   LINE      CODE     ---       #137
      00FF5F95H   LINE      CODE     ---       #138
      00FF5F95H   LINE      CODE     ---       #139
      00FF5F9FH   LINE      CODE     ---       #141
      00FF5FB2H   LINE      CODE     ---       #142
      00FF5FC9H   LINE      CODE     ---       #143
      00FF5FC9H   LINE      CODE     ---       #144
      00FF5FD3H   LINE      CODE     ---       #146
      00FF5FE6H   LINE      CODE     ---       #147
      00FF5FFDH   LINE      CODE     ---       #148
      00FF5FFDH   LINE      CODE     ---       #150
      ---         BLOCKEND  ---      ---       LVL=0

      00FF5FFEH   BLOCK     CODE     ---       LVL=0
      00FF5FFEH   LINE      CODE     ---       #153
      00FF5FFEH   LINE      CODE     ---       #155
      00FF600BH   LINE      CODE     ---       #157
      00FF6015H   LINE      CODE     ---       #159
      00FF6028H   LINE      CODE     ---       #160
      00FF603BH   LINE      CODE     ---       #161
      00FF6050H   LINE      CODE     ---       #162
      00FF6065H   LINE      CODE     ---       #163
      00FF6065H   LINE      CODE     ---       #164
      00FF606FH   LINE      CODE     ---       #166
      00FF6082H   LINE      CODE     ---       #167
      00FF6095H   LINE      CODE     ---       #168
      00FF60ACH   LINE      CODE     ---       #169
      00FF60C3H   LINE      CODE     ---       #170
      00FF60C3H   LINE      CODE     ---       #171
      00FF60CDH   LINE      CODE     ---       #173
      00FF60E0H   LINE      CODE     ---       #174
      00FF60F3H   LINE      CODE     ---       #175
      00FF610AH   LINE      CODE     ---       #176
      00FF6121H   LINE      CODE     ---       #177
      00FF6121H   LINE      CODE     ---       #179
      00FF612EH   LINE      CODE     ---       #181
      00FF6138H   LINE      CODE     ---       #183
      00FF614BH   LINE      CODE     ---       #184
      00FF6160H   LINE      CODE     ---       #185
      00FF6160H   LINE      CODE     ---       #186
      00FF616AH   LINE      CODE     ---       #188
      00FF617DH   LINE      CODE     ---       #189
      00FF6194H   LINE      CODE     ---       #190
      00FF6194H   LINE      CODE     ---       #191
      00FF619EH   LINE      CODE     ---       #193
      00FF61B1H   LINE      CODE     ---       #194
      00FF61C8H   LINE      CODE     ---       #195
      00FF61C8H   LINE      CODE     ---       #197
      ---         BLOCKEND  ---      ---       LVL=0

      00FF5C68H   BLOCK     CODE     ---       LVL=0
      00FF5C68H   LINE      CODE     ---       #200
      00FF5C68H   LINE      CODE     ---       #202
      00FF5C75H   LINE      CODE     ---       #204
L251 LINKER/LOCATER V4.66.93.0                                                        03/12/2024  22:09:15  PAGE 106


      00FF5C7FH   LINE      CODE     ---       #206
      00FF5C92H   LINE      CODE     ---       #207
      00FF5CA5H   LINE      CODE     ---       #208
      00FF5CBAH   LINE      CODE     ---       #209
      00FF5CCFH   LINE      CODE     ---       #210
      00FF5CCFH   LINE      CODE     ---       #211
      00FF5CD9H   LINE      CODE     ---       #213
      00FF5CECH   LINE      CODE     ---       #214
      00FF5CFFH   LINE      CODE     ---       #215
      00FF5D16H   LINE      CODE     ---       #216
      00FF5D2DH   LINE      CODE     ---       #217
      00FF5D2DH   LINE      CODE     ---       #218
      00FF5D37H   LINE      CODE     ---       #220
      00FF5D4AH   LINE      CODE     ---       #221
      00FF5D5DH   LINE      CODE     ---       #222
      00FF5D74H   LINE      CODE     ---       #223
      00FF5D8BH   LINE      CODE     ---       #224
      00FF5D8BH   LINE      CODE     ---       #226
      00FF5D98H   LINE      CODE     ---       #228
      00FF5DA2H   LINE      CODE     ---       #230
      00FF5DB5H   LINE      CODE     ---       #231
      00FF5DCAH   LINE      CODE     ---       #232
      00FF5DCAH   LINE      CODE     ---       #233
      00FF5DD4H   LINE      CODE     ---       #235
      00FF5DE7H   LINE      CODE     ---       #236
      00FF5DFEH   LINE      CODE     ---       #237
      00FF5DFEH   LINE      CODE     ---       #238
      00FF5E08H   LINE      CODE     ---       #240
      00FF5E1BH   LINE      CODE     ---       #241
      00FF5E32H   LINE      CODE     ---       #242
      00FF5E32H   LINE      CODE     ---       #244
      ---         BLOCKEND  ---      ---       LVL=0

      ---         MODULE    ---      ---       Pid
      00FF6528H   PUBLIC    CODE     ---       PID_increase
      00FF8623H   PUBLIC    CODE     ---       PID_ALL_Init
      00FF7303H   PUBLIC    CODE     ---       PID_Inc_Init
      000001C7H   PUBLIC    EDATA    ---       PidI_L
      000001F7H   PUBLIC    EDATA    ---       PidI_R
      00000227H   PUBLIC    EDATA    ---       Pid_Dir
      0000024FH   PUBLIC    EDATA    ---       PidP_Angle
      000008E1H   PUBLIC    EDATA    BYTE      ?PID_Pos_Init?BYTE
      000008F1H   PUBLIC    EDATA    BYTE      ?PID_Inc_Init?BYTE
      000000D0H   SFRSYM    DATA     BYTE      PSW
      0000009DH   SFRSYM    DATA     BYTE      IRCBAND
      00000097H   SFRSYM    DATA     BYTE      AUXR2
      000000EFH   SFRSYM    DATA     BYTE      AUXINTIF
      000000FDH   SFRSYM    DATA     BYTE      S4CON
      000000ACH   SFRSYM    DATA     BYTE      S3CON
      0000009AH   SFRSYM    DATA     BYTE      S2CON
      000000B7H   SFRSYM    DATA     BYTE      IPH
      000000CDH   SFRSYM    DATA     BYTE      SPSTAT
      000000DDH   SFRSYM    DATA     BYTE      T4T3M
      000000C1H   SFRSYM    DATA     BYTE      WDT_CONTR
      000000DFH   SFRSYM    DATA     BYTE      IP3
      000000F4H   SFRSYM    DATA     BYTE      USBCON
      000000B5H   SFRSYM    DATA     BYTE      IP2
      000000FFH   SFRSYM    DATA     BYTE      RSTCFG
      000000F9H   SFRSYM    DATA     BYTE      LINICR
      0000008EH   SFRSYM    DATA     BYTE      AUXR
      000000AFH   SFRSYM    DATA     BYTE      IE2
      00000088H   SFRSYM    DATA     BYTE      TCON
      00000098H   SFRSYM    DATA     BYTE      SCON
      000000F1H   SFRSYM    DATA     BYTE      CANICR
      00000087H   SFRSYM    DATA     BYTE      PCON
L251 LINKER/LOCATER V4.66.93.0                                                        03/12/2024  22:09:15  PAGE 107


      000000BCH   SFRSYM    DATA     BYTE      ADC_CONTR
      000000E7H   SFRSYM    DATA     BYTE      CMPCR2
      000000E6H   SFRSYM    DATA     BYTE      CMPCR1
      000000B8H   SFRSYM    DATA     BYTE      IP
      0000008FH   SFRSYM    DATA     BYTE      INTCLKO
      000000EEH   SFRSYM    DATA     BYTE      IP3H
      000000B6H   SFRSYM    DATA     BYTE      IP2H
      000000A8H   SFRSYM    DATA     BYTE      IE
      000000BBH   SFRSYM    DATA     BYTE      P_SW3
      000000BAH   SFRSYM    DATA     BYTE      P_SW2
      000000A2H   SFRSYM    DATA     BYTE      P_SW1
      000000CEH   SFRSYM    DATA     BYTE      SPCTL
      000000F8H   SFRSYM    DATA     BYTE      P7
      000000E8H   SFRSYM    DATA     BYTE      P6
      000000C8H   SFRSYM    DATA     BYTE      P5
      000000C0H   SFRSYM    DATA     BYTE      P4
      000000B0H   SFRSYM    DATA     BYTE      P3
      000000A0H   SFRSYM    DATA     BYTE      P2
      00000090H   SFRSYM    DATA     BYTE      P1
      00000080H   SFRSYM    DATA     BYTE      P0

      00FF8623H   BLOCK     CODE     ---       LVL=0
      00FF8623H   LINE      CODE     ---       #8
      00FF8623H   LINE      CODE     ---       #13
      00FF864AH   LINE      CODE     ---       #14
      00FF8671H   LINE      CODE     ---       #15
      ---         BLOCKEND  ---      ---       LVL=0
      000008E1H   SYMBOL    EDATA    ---       PID
      000008E5H   SYMBOL    EDATA    FLOAT     p
      000008E9H   SYMBOL    EDATA    FLOAT     i
      000008EDH   SYMBOL    EDATA    FLOAT     d

      00FF7303H   BLOCK     CODE     ---       LVL=0
      000008F1H   SYMBOL    EDATA    ---       PID
      000008F5H   SYMBOL    EDATA    FLOAT     p
      000008F9H   SYMBOL    EDATA    FLOAT     i
      000008FDH   SYMBOL    EDATA    FLOAT     d
      00FF7303H   LINE      CODE     ---       #31
      00FF730BH   LINE      CODE     ---       #33
      00FF731AH   LINE      CODE     ---       #34
      00FF732BH   LINE      CODE     ---       #35
      00FF733EH   LINE      CODE     ---       #36
      00FF734FH   LINE      CODE     ---       #37
      00FF7360H   LINE      CODE     ---       #38
      00FF7371H   LINE      CODE     ---       #39
      00FF7382H   LINE      CODE     ---       #40
      00FF7393H   LINE      CODE     ---       #41
      00FF73A4H   LINE      CODE     ---       #42
      00FF73B5H   LINE      CODE     ---       #43
      00FF73C6H   LINE      CODE     ---       #44
      00FF73D7H   LINE      CODE     ---       #45
      ---         BLOCKEND  ---      ---       LVL=0
      00000C34H   SYMBOL    EDATA    ---       PID
      00000C38H   SYMBOL    EDATA    FLOAT     t

      00FF6528H   BLOCK     CODE     ---       LVL=0
      00000C3CH   SYMBOL    EDATA    ---       PID
      00000C40H   SYMBOL    EDATA    FLOAT     t
      00FF6528H   LINE      CODE     ---       #57
      00FF6530H   LINE      CODE     ---       #59
      00FF6543H   LINE      CODE     ---       #60
      00FF6575H   LINE      CODE     ---       #61
      00FF663AH   LINE      CODE     ---       #62
      00FF6658H   LINE      CODE     ---       #63
      00FF6676H   LINE      CODE     ---       #64
L251 LINKER/LOCATER V4.66.93.0                                                        03/12/2024  22:09:15  PAGE 108


      00FF669EH   LINE      CODE     ---       #65
      00FF66B0H   LINE      CODE     ---       #66
      ---         BLOCKEND  ---      ---       LVL=0

      ---         MODULE    ---      ---       Encoder
      00FF8B5BH   PUBLIC    CODE     ---       Encoder_speed
      00FF0046H   PUBLIC    CODE     ---       Encoder_init
      000000D0H   SFRSYM    DATA     BYTE      PSW
      0000009DH   SFRSYM    DATA     BYTE      IRCBAND
      00000097H   SFRSYM    DATA     BYTE      AUXR2
      000000EFH   SFRSYM    DATA     BYTE      AUXINTIF
      000000FDH   SFRSYM    DATA     BYTE      S4CON
      000000ACH   SFRSYM    DATA     BYTE      S3CON
      0000009AH   SFRSYM    DATA     BYTE      S2CON
      000000B7H   SFRSYM    DATA     BYTE      IPH
      000000CDH   SFRSYM    DATA     BYTE      SPSTAT
      000000DDH   SFRSYM    DATA     BYTE      T4T3M
      000000C1H   SFRSYM    DATA     BYTE      WDT_CONTR
      000000DFH   SFRSYM    DATA     BYTE      IP3
      000000F4H   SFRSYM    DATA     BYTE      USBCON
      000000B5H   SFRSYM    DATA     BYTE      IP2
      000000FFH   SFRSYM    DATA     BYTE      RSTCFG
      000000F9H   SFRSYM    DATA     BYTE      LINICR
      0000008EH   SFRSYM    DATA     BYTE      AUXR
      000000AFH   SFRSYM    DATA     BYTE      IE2
      00000088H   SFRSYM    DATA     BYTE      TCON
      00000098H   SFRSYM    DATA     BYTE      SCON
      000000F1H   SFRSYM    DATA     BYTE      CANICR
      00000087H   SFRSYM    DATA     BYTE      PCON
      000000BCH   SFRSYM    DATA     BYTE      ADC_CONTR
      000000E7H   SFRSYM    DATA     BYTE      CMPCR2
      000000E6H   SFRSYM    DATA     BYTE      CMPCR1
      000000B8H   SFRSYM    DATA     BYTE      IP
      0000008FH   SFRSYM    DATA     BYTE      INTCLKO
      000000EEH   SFRSYM    DATA     BYTE      IP3H
      000000B6H   SFRSYM    DATA     BYTE      IP2H
      000000A8H   SFRSYM    DATA     BYTE      IE
      000000BBH   SFRSYM    DATA     BYTE      P_SW3
      000000BAH   SFRSYM    DATA     BYTE      P_SW2
      000000A2H   SFRSYM    DATA     BYTE      P_SW1
      000000CEH   SFRSYM    DATA     BYTE      SPCTL
      000000F8H   SFRSYM    DATA     BYTE      P7
      000000E8H   SFRSYM    DATA     BYTE      P6
      000000C8H   SFRSYM    DATA     BYTE      P5
      000000C0H   SFRSYM    DATA     BYTE      P4
      000000B0H   SFRSYM    DATA     BYTE      P3
      000000A0H   SFRSYM    DATA     BYTE      P2
      00000090H   SFRSYM    DATA     BYTE      P1
      00000080H   SFRSYM    DATA     BYTE      P0

      00FF0046H   BLOCK     CODE     ---       LVL=0
      00FF0046H   LINE      CODE     ---       #3
      00FF0046H   LINE      CODE     ---       #5
      00FF004BH   LINE      CODE     ---       #6
      00FF0052H   LINE      CODE     ---       #7
      ---         BLOCKEND  ---      ---       LVL=0

      00FF8B5BH   BLOCK     CODE     ---       LVL=0
      00FF8B5BH   LINE      CODE     ---       #8
      00FF8B5BH   LINE      CODE     ---       #10
      00FF8B6AH   LINE      CODE     ---       #11
      00FF8B7BH   LINE      CODE     ---       #12
      00FF8B80H   LINE      CODE     ---       #13
      00FF8B87H   LINE      CODE     ---       #14
      ---         BLOCKEND  ---      ---       LVL=0
L251 LINKER/LOCATER V4.66.93.0                                                        03/12/2024  22:09:15  PAGE 109



      ---         MODULE    ---      ---       Adc
      00FF8994H   PUBLIC    CODE     ---       Adcs_init
      000000D0H   SFRSYM    DATA     BYTE      PSW
      0000009DH   SFRSYM    DATA     BYTE      IRCBAND
      00000097H   SFRSYM    DATA     BYTE      AUXR2
      000000EFH   SFRSYM    DATA     BYTE      AUXINTIF
      000000FDH   SFRSYM    DATA     BYTE      S4CON
      000000ACH   SFRSYM    DATA     BYTE      S3CON
      0000009AH   SFRSYM    DATA     BYTE      S2CON
      000000B7H   SFRSYM    DATA     BYTE      IPH
      000000CDH   SFRSYM    DATA     BYTE      SPSTAT
      000000DDH   SFRSYM    DATA     BYTE      T4T3M
      000000C1H   SFRSYM    DATA     BYTE      WDT_CONTR
      000000DFH   SFRSYM    DATA     BYTE      IP3
      000000F4H   SFRSYM    DATA     BYTE      USBCON
      000000B5H   SFRSYM    DATA     BYTE      IP2
      000000FFH   SFRSYM    DATA     BYTE      RSTCFG
      000000F9H   SFRSYM    DATA     BYTE      LINICR
      0000008EH   SFRSYM    DATA     BYTE      AUXR
      000000AFH   SFRSYM    DATA     BYTE      IE2
      00000088H   SFRSYM    DATA     BYTE      TCON
      00000098H   SFRSYM    DATA     BYTE      SCON
      000000F1H   SFRSYM    DATA     BYTE      CANICR
      00000087H   SFRSYM    DATA     BYTE      PCON
      000000BCH   SFRSYM    DATA     BYTE      ADC_CONTR
      000000E7H   SFRSYM    DATA     BYTE      CMPCR2
      000000E6H   SFRSYM    DATA     BYTE      CMPCR1
      000000B8H   SFRSYM    DATA     BYTE      IP
      0000008FH   SFRSYM    DATA     BYTE      INTCLKO
      000000EEH   SFRSYM    DATA     BYTE      IP3H
      000000B6H   SFRSYM    DATA     BYTE      IP2H
      000000A8H   SFRSYM    DATA     BYTE      IE
      000000BBH   SFRSYM    DATA     BYTE      P_SW3
      000000BAH   SFRSYM    DATA     BYTE      P_SW2
      000000A2H   SFRSYM    DATA     BYTE      P_SW1
      000000CEH   SFRSYM    DATA     BYTE      SPCTL
      000000F8H   SFRSYM    DATA     BYTE      P7
      000000E8H   SFRSYM    DATA     BYTE      P6
      000000C8H   SFRSYM    DATA     BYTE      P5
      000000C0H   SFRSYM    DATA     BYTE      P4
      000000B0H   SFRSYM    DATA     BYTE      P3
      000000A0H   SFRSYM    DATA     BYTE      P2
      00000090H   SFRSYM    DATA     BYTE      P1
      00000080H   SFRSYM    DATA     BYTE      P0

      00FF8994H   BLOCK     CODE     ---       LVL=0
      00FF8994H   LINE      CODE     ---       #3
      00FF8994H   LINE      CODE     ---       #9
      00FF899DH   LINE      CODE     ---       #10
      00FF89A6H   LINE      CODE     ---       #12
      00FF89AFH   LINE      CODE     ---       #13
      00FF89B8H   LINE      CODE     ---       #14
      00FF89C1H   LINE      CODE     ---       #15
      00FF89CAH   LINE      CODE     ---       #17
      00FF89D3H   LINE      CODE     ---       #18
      ---         BLOCKEND  ---      ---       LVL=0

      ---         MODULE    ---      ---       Beep
      00FF8E90H   PUBLIC    CODE     ---       Beep_init
      000000D0H   SFRSYM    DATA     BYTE      PSW
      0000009DH   SFRSYM    DATA     BYTE      IRCBAND
      00000097H   SFRSYM    DATA     BYTE      AUXR2
      000000EFH   SFRSYM    DATA     BYTE      AUXINTIF
      000000FDH   SFRSYM    DATA     BYTE      S4CON
L251 LINKER/LOCATER V4.66.93.0                                                        03/12/2024  22:09:15  PAGE 110


      000000ACH   SFRSYM    DATA     BYTE      S3CON
      0000009AH   SFRSYM    DATA     BYTE      S2CON
      000000B7H   SFRSYM    DATA     BYTE      IPH
      000000CDH   SFRSYM    DATA     BYTE      SPSTAT
      000000DDH   SFRSYM    DATA     BYTE      T4T3M
      000000C1H   SFRSYM    DATA     BYTE      WDT_CONTR
      000000DFH   SFRSYM    DATA     BYTE      IP3
      000000F4H   SFRSYM    DATA     BYTE      USBCON
      000000B5H   SFRSYM    DATA     BYTE      IP2
      000000FFH   SFRSYM    DATA     BYTE      RSTCFG
      000000F9H   SFRSYM    DATA     BYTE      LINICR
      0000008EH   SFRSYM    DATA     BYTE      AUXR
      000000AFH   SFRSYM    DATA     BYTE      IE2
      000000C0H.4 SFRSYM    DATA     BIT       P44
      00000088H   SFRSYM    DATA     BYTE      TCON
      00000098H   SFRSYM    DATA     BYTE      SCON
      000000F1H   SFRSYM    DATA     BYTE      CANICR
      00000087H   SFRSYM    DATA     BYTE      PCON
      000000BCH   SFRSYM    DATA     BYTE      ADC_CONTR
      000000E7H   SFRSYM    DATA     BYTE      CMPCR2
      000000E6H   SFRSYM    DATA     BYTE      CMPCR1
      000000B8H   SFRSYM    DATA     BYTE      IP
      0000008FH   SFRSYM    DATA     BYTE      INTCLKO
      000000EEH   SFRSYM    DATA     BYTE      IP3H
      000000B6H   SFRSYM    DATA     BYTE      IP2H
      000000A8H   SFRSYM    DATA     BYTE      IE
      000000BBH   SFRSYM    DATA     BYTE      P_SW3
      000000BAH   SFRSYM    DATA     BYTE      P_SW2
      000000A2H   SFRSYM    DATA     BYTE      P_SW1
      000000CEH   SFRSYM    DATA     BYTE      SPCTL
      000000F8H   SFRSYM    DATA     BYTE      P7
      000000E8H   SFRSYM    DATA     BYTE      P6
      000000C8H   SFRSYM    DATA     BYTE      P5
      000000C0H   SFRSYM    DATA     BYTE      P4
      000000B0H   SFRSYM    DATA     BYTE      P3
      000000A0H   SFRSYM    DATA     BYTE      P2
      00000090H   SFRSYM    DATA     BYTE      P1
      00000080H   SFRSYM    DATA     BYTE      P0

      00FF8E90H   BLOCK     CODE     ---       LVL=0
      00FF8E90H   LINE      CODE     ---       #2
      00FF8E90H   LINE      CODE     ---       #4
      00FF8E9BH   LINE      CODE     ---       #5
      00FF8EA4H   LINE      CODE     ---       #6
      00FF8EA7H   LINE      CODE     ---       #7
      ---         BLOCKEND  ---      ---       LVL=0

      ---         MODULE    ---      ---       inductance
      00FF784BH   PUBLIC    CODE     ---       SimpleNorRead
      00FF6394H   PUBLIC    CODE     ---       My_center_mag
      00FF5085H   PUBLIC    CODE     ---       InductorRead
      000000EBH   PUBLIC    EDATA    INT       ELC_CenterRepair
      000000EDH   PUBLIC    EDATA    ---       LNow
      000000FBH   PUBLIC    EDATA    INT       ELC_Center
      000000FDH   PUBLIC    EDATA    INT       ELC_Center_B00
      000000FFH   PUBLIC    EDATA    INT       ELC_Center_F00
      00000101H   PUBLIC    EDATA    BYTE      right_value
      00000102H   PUBLIC    EDATA    INT       ELC_Center_F11
      00000104H   PUBLIC    EDATA    ---       LNowMin
      00000112H   PUBLIC    EDATA    ---       LNowMax
      00000120H   PUBLIC    EDATA    BYTE      left_value
      00000121H   PUBLIC    EDATA    INT       ELC_CenterLast
      00000123H   PUBLIC    EDATA    INT       ad_diff
      00000125H   PUBLIC    EDATA    INT       deviation
      00000127H   PUBLIC    EDATA    ---       ELC
L251 LINKER/LOCATER V4.66.93.0                                                        03/12/2024  22:09:15  PAGE 111


      000001A5H   PUBLIC    EDATA    WORD      ELC_Sum_F0110
      000001A7H   PUBLIC    EDATA    BYTE      ElcProtect_Flag
      000001A8H   PUBLIC    EDATA    INT       ELC_Err_B00
      000001AAH   PUBLIC    EDATA    INT       ELC_Err_F00
      000001ACH   PUBLIC    EDATA    INT       ELC_Err_F11
      000001AEH   PUBLIC    EDATA    WORD      ELC_Sum_FALL
      000001B0H   PUBLIC    EDATA    INT       ELC_CenterBefore
      000001B2H   PUBLIC    EDATA    WORD      ELC_Sum_F00
      000001B4H   PUBLIC    EDATA    WORD      ELC_Sum_F11
      000001B6H   PUBLIC    EDATA    BYTE      ELC_Center_Flag
      000001B7H   PUBLIC    EDATA    INT       ad_sum
      000001B9H   PUBLIC    EDATA    ---       LNor
      000000D0H   SFRSYM    DATA     BYTE      PSW
      0000009DH   SFRSYM    DATA     BYTE      IRCBAND
      00000097H   SFRSYM    DATA     BYTE      AUXR2
      000000EFH   SFRSYM    DATA     BYTE      AUXINTIF
      000000FDH   SFRSYM    DATA     BYTE      S4CON
      000000ACH   SFRSYM    DATA     BYTE      S3CON
      0000009AH   SFRSYM    DATA     BYTE      S2CON
      000000B7H   SFRSYM    DATA     BYTE      IPH
      000000CDH   SFRSYM    DATA     BYTE      SPSTAT
      000000DDH   SFRSYM    DATA     BYTE      T4T3M
      000000C1H   SFRSYM    DATA     BYTE      WDT_CONTR
      000000DFH   SFRSYM    DATA     BYTE      IP3
      000000F4H   SFRSYM    DATA     BYTE      USBCON
      000000B5H   SFRSYM    DATA     BYTE      IP2
      000000FFH   SFRSYM    DATA     BYTE      RSTCFG
      000000F9H   SFRSYM    DATA     BYTE      LINICR
      0000008EH   SFRSYM    DATA     BYTE      AUXR
      000000AFH   SFRSYM    DATA     BYTE      IE2
      00000088H   SFRSYM    DATA     BYTE      TCON
      00000098H   SFRSYM    DATA     BYTE      SCON
      000000F1H   SFRSYM    DATA     BYTE      CANICR
      00000087H   SFRSYM    DATA     BYTE      PCON
      000000BCH   SFRSYM    DATA     BYTE      ADC_CONTR
      000000E7H   SFRSYM    DATA     BYTE      CMPCR2
      000000E6H   SFRSYM    DATA     BYTE      CMPCR1
      000000B8H   SFRSYM    DATA     BYTE      IP
      0000008FH   SFRSYM    DATA     BYTE      INTCLKO
      000000EEH   SFRSYM    DATA     BYTE      IP3H
      000000B6H   SFRSYM    DATA     BYTE      IP2H
      000000A8H   SFRSYM    DATA     BYTE      IE
      000000BBH   SFRSYM    DATA     BYTE      P_SW3
      000000BAH   SFRSYM    DATA     BYTE      P_SW2
      000000A2H   SFRSYM    DATA     BYTE      P_SW1
      000000CEH   SFRSYM    DATA     BYTE      SPCTL
      000000F8H   SFRSYM    DATA     BYTE      P7
      000000E8H   SFRSYM    DATA     BYTE      P6
      000000C8H   SFRSYM    DATA     BYTE      P5
      000000C0H   SFRSYM    DATA     BYTE      P4
      000000B0H   SFRSYM    DATA     BYTE      P3
      000000A0H   SFRSYM    DATA     BYTE      P2
      00000090H   SFRSYM    DATA     BYTE      P1
      00000080H   SFRSYM    DATA     BYTE      P0
      00FF92D8H   SYMBOL    HCONST   ---       ?tpl?0001

      00FF5085H   BLOCK     CODE     ---       LVL=0
      00000811H   SYMBOL    EDATA    ---       L_sum
      0000081FH   SYMBOL    EDATA    BYTE      i
      00000820H   SYMBOL    EDATA    BYTE      j
      00000821H   SYMBOL    EDATA    BYTE      k
      00000822H   SYMBOL    EDATA    WORD      L_max
      00000824H   SYMBOL    EDATA    WORD      L_max_index
      00000826H   SYMBOL    EDATA    WORD      len
      00FF5085H   LINE      CODE     ---       #120
L251 LINKER/LOCATER V4.66.93.0                                                        03/12/2024  22:09:15  PAGE 112


      00FF5085H   LINE      CODE     ---       #121
      00FF5085H   LINE      CODE     ---       #122
      00FF5096H   LINE      CODE     ---       #123
      00FF50A5H   LINE      CODE     ---       #124
      00FF50B7H   LINE      CODE     ---       #127
      00FF50BFH   LINE      CODE     ---       #129
      00FF50C7H   LINE      CODE     ---       #132
      00FF50EFH   LINE      CODE     ---       #133
      00FF5117H   LINE      CODE     ---       #134
      00FF513FH   LINE      CODE     ---       #135
      00FF5167H   LINE      CODE     ---       #136
      00FF518FH   LINE      CODE     ---       #137
      00FF51B7H   LINE      CODE     ---       #138
      00FF51DFH   LINE      CODE     ---       #139
      00FF51F9H   LINE      CODE     ---       #140
      00FF5213H   LINE      CODE     ---       #142
      00FF521BH   LINE      CODE     ---       #144
      00FF5223H   LINE      CODE     ---       #146
      00FF522BH   LINE      CODE     ---       #147
      00FF522EH   LINE      CODE     ---       #149
      00FF5234H   LINE      CODE     ---       #150
      00FF523AH   LINE      CODE     ---       #151
      00FF5241H   LINE      CODE     ---       #153
      00FF5271H   LINE      CODE     ---       #155
      00FF529DH   LINE      CODE     ---       #156
      00FF52A7H   LINE      CODE     ---       #157
      00FF52C5H   LINE      CODE     ---       #159
      00FF531DH   LINE      CODE     ---       #160
      00FF5350H   LINE      CODE     ---       #161
      00FF535EH   LINE      CODE     ---       #162
      00FF536DH   LINE      CODE     ---       #163
      00FF53A1H   LINE      CODE     ---       #164
      00FF53BBH   LINE      CODE     ---       #165
      00FF53D5H   LINE      CODE     ---       #166
      00FF53DCH   LINE      CODE     ---       #168
      00FF5406H   LINE      CODE     ---       #169
      00FF541DH   LINE      CODE     ---       #170
      ---         BLOCKEND  ---      ---       LVL=0

      00FF784BH   BLOCK     CODE     ---       LVL=0
      00000E09H   SYMBOL    EDATA    BYTE      i
      00FF784BH   LINE      CODE     ---       #180
      00FF784BH   LINE      CODE     ---       #181
      00FF784BH   LINE      CODE     ---       #182
      00FF7850H   LINE      CODE     ---       #183
      00FF7858H   LINE      CODE     ---       #185
      00FF78D5H   LINE      CODE     ---       #186
      00FF78EFH   LINE      CODE     ---       #187
      ---         BLOCKEND  ---      ---       LVL=0

      00FF6394H   BLOCK     CODE     ---       LVL=0
      00000E0AH   SYMBOL    EDATA    BYTE      i
      00FF6394H   LINE      CODE     ---       #203
      00FF639AH   LINE      CODE     ---       #206
      00FF641EH   LINE      CODE     ---       #207
      00FF64A2H   LINE      CODE     ---       #209
      00FF64B0H   LINE      CODE     ---       #211
      00FF64C2H   LINE      CODE     ---       #212
      00FF64CEH   LINE      CODE     ---       #214
      00FF64D4H   LINE      CODE     ---       #215
      00FF64DDH   LINE      CODE     ---       #218
      00FF64F8H   LINE      CODE     ---       #219
      00FF64FAH   LINE      CODE     ---       #221
      00FF651DH   LINE      CODE     ---       #222
      00FF651FH   LINE      CODE     ---       #225
L251 LINKER/LOCATER V4.66.93.0                                                        03/12/2024  22:09:15  PAGE 113


      00FF6525H   LINE      CODE     ---       #226
      00FF6525H   LINE      CODE     ---       #227
      ---         BLOCKEND  ---      ---       LVL=0

      ---         MODULE    ---      ---       Control
      00FF8E0DH   PUBLIC    CODE     ---       Motor_set_PWM
      00FF7E2BH   PUBLIC    CODE     ---       dircontrol
      00FF6C39H   PUBLIC    CODE     ---       Pid_Ctrl2
      00000778H   PUBLIC    EDATA    FLOAT     dir_d
      0000077CH   PUBLIC    EDATA    INT       out_L
      0000077EH   PUBLIC    EDATA    FLOAT     dir_i
      00000782H   PUBLIC    EDATA    INT       out_R
      00000784H   PUBLIC    EDATA    FLOAT     dir_p
      00000788H   PUBLIC    EDATA    INT       last_chazhi
      0000078AH   PUBLIC    EDATA    INT       dutyL
      0000078CH   PUBLIC    EDATA    INT       out_dw
      0000078EH   PUBLIC    EDATA    INT       dutyR
      00000790H   PUBLIC    EDATA    INT       Dir_real
      00000792H   PUBLIC    EDATA    INT       output
      00000794H   PUBLIC    EDATA    INT       Dir_out
      00000796H   PUBLIC    EDATA    INT       B11_sum
      00000798H   PUBLIC    EDATA    INT       B11_errLR
      0000079AH   PUBLIC    EDATA    INT       B11_errRL
      0000079CH   PUBLIC    EDATA    INT       total_i
      000000D0H   SFRSYM    DATA     BYTE      PSW
      0000009DH   SFRSYM    DATA     BYTE      IRCBAND
      00000097H   SFRSYM    DATA     BYTE      AUXR2
      000000EFH   SFRSYM    DATA     BYTE      AUXINTIF
      000000FDH   SFRSYM    DATA     BYTE      S4CON
      000000ACH   SFRSYM    DATA     BYTE      S3CON
      0000009AH   SFRSYM    DATA     BYTE      S2CON
      000000B7H   SFRSYM    DATA     BYTE      IPH
      000000CDH   SFRSYM    DATA     BYTE      SPSTAT
      000000DDH   SFRSYM    DATA     BYTE      T4T3M
      000000C1H   SFRSYM    DATA     BYTE      WDT_CONTR
      000000DFH   SFRSYM    DATA     BYTE      IP3
      000000F4H   SFRSYM    DATA     BYTE      USBCON
      000000B5H   SFRSYM    DATA     BYTE      IP2
      000000FFH   SFRSYM    DATA     BYTE      RSTCFG
      000000F9H   SFRSYM    DATA     BYTE      LINICR
      0000008EH   SFRSYM    DATA     BYTE      AUXR
      000000AFH   SFRSYM    DATA     BYTE      IE2
      00000088H   SFRSYM    DATA     BYTE      TCON
      00000098H   SFRSYM    DATA     BYTE      SCON
      000000F1H   SFRSYM    DATA     BYTE      CANICR
      00000087H   SFRSYM    DATA     BYTE      PCON
      000000BCH   SFRSYM    DATA     BYTE      ADC_CONTR
      000000E7H   SFRSYM    DATA     BYTE      CMPCR2
      000000E6H   SFRSYM    DATA     BYTE      CMPCR1
      000000B8H   SFRSYM    DATA     BYTE      IP
      0000008FH   SFRSYM    DATA     BYTE      INTCLKO
      000000EEH   SFRSYM    DATA     BYTE      IP3H
      000000B6H   SFRSYM    DATA     BYTE      IP2H
      000000A8H   SFRSYM    DATA     BYTE      IE
      000000BBH   SFRSYM    DATA     BYTE      P_SW3
      000000BAH   SFRSYM    DATA     BYTE      P_SW2
      000000A2H   SFRSYM    DATA     BYTE      P_SW1
      000000CEH   SFRSYM    DATA     BYTE      SPCTL
      000000F8H   SFRSYM    DATA     BYTE      P7
      000000E8H   SFRSYM    DATA     BYTE      P6
      000000C8H   SFRSYM    DATA     BYTE      P5
      000000C0H   SFRSYM    DATA     BYTE      P4
      000000B0H   SFRSYM    DATA     BYTE      P3
      000000A0H   SFRSYM    DATA     BYTE      P2
      00000090H   SFRSYM    DATA     BYTE      P1
L251 LINKER/LOCATER V4.66.93.0                                                        03/12/2024  22:09:15  PAGE 114


      00000080H   SFRSYM    DATA     BYTE      P0

      00FF6C39H   BLOCK     CODE     ---       LVL=0
      00FF6C39H   LINE      CODE     ---       #64
      00FF6C39H   LINE      CODE     ---       #66
      00FF6C3DH   LINE      CODE     ---       #67
      00FF6C48H   LINE      CODE     ---       #68
      00FF6C74H   LINE      CODE     ---       #69
      00FF6CA0H   LINE      CODE     ---       #70
      00FF6CCCH   LINE      CODE     ---       #71
      00FF6D02H   LINE      CODE     ---       #72
      00FF6D38H   LINE      CODE     ---       #75
      00FF6D3BH   LINE      CODE     ---       #76
      00FF6D4FH   LINE      CODE     ---       #77
      00FF6D63H   LINE      CODE     ---       #78
      00FF6D71H   LINE      CODE     ---       #79
      00FF6D7FH   LINE      CODE     ---       #80
      00FF6D82H   LINE      CODE     ---       #81
      ---         BLOCKEND  ---      ---       LVL=0

      00FF7E2BH   BLOCK     CODE     ---       LVL=0
      00000DF6H   SYMBOL    EDATA    INT       chazhi
      00FF7E2BH   LINE      CODE     ---       #91
      00FF7E2FH   LINE      CODE     ---       #93
      00FF7E3DH   LINE      CODE     ---       #94
      00FF7E8CH   LINE      CODE     ---       #95
      00FF7E94H   LINE      CODE     ---       #96
      00FF7E98H   LINE      CODE     ---       #97
      ---         BLOCKEND  ---      ---       LVL=0

      00FF8E0DH   BLOCK     CODE     ---       LVL=0
      00FF8E0DH   LINE      CODE     ---       #98
      00FF8E0DH   LINE      CODE     ---       #100
      00FF8E1AH   LINE      CODE     ---       #101
      00FF8E27H   LINE      CODE     ---       #102
      ---         BLOCKEND  ---      ---       LVL=0

      ---         MODULE    ---      ---       seekfree_assistant
      00000008H   PUBLIC    EDATA    ---       seekfree_assistant_oscilloscope_data
      00000043H   PUBLIC    EDATA    ---       seekfree_assistant_parameter_update_flag
      0000004BH   PUBLIC    EDATA    ---       seekfree_assistant_parameter
      000000D0H   SFRSYM    DATA     BYTE      PSW
      0000009DH   SFRSYM    DATA     BYTE      IRCBAND
      00000097H   SFRSYM    DATA     BYTE      AUXR2
      000000EFH   SFRSYM    DATA     BYTE      AUXINTIF
      000000FDH   SFRSYM    DATA     BYTE      S4CON
      000000ACH   SFRSYM    DATA     BYTE      S3CON
      0000009AH   SFRSYM    DATA     BYTE      S2CON
      000000B7H   SFRSYM    DATA     BYTE      IPH
      000000CDH   SFRSYM    DATA     BYTE      SPSTAT
      000000DDH   SFRSYM    DATA     BYTE      T4T3M
      000000C1H   SFRSYM    DATA     BYTE      WDT_CONTR
      000000DFH   SFRSYM    DATA     BYTE      IP3
      000000F4H   SFRSYM    DATA     BYTE      USBCON
      000000B5H   SFRSYM    DATA     BYTE      IP2
      000000FFH   SFRSYM    DATA     BYTE      RSTCFG
      000000F9H   SFRSYM    DATA     BYTE      LINICR
      0000008EH   SFRSYM    DATA     BYTE      AUXR
      000000AFH   SFRSYM    DATA     BYTE      IE2
      00000088H   SFRSYM    DATA     BYTE      TCON
      00000098H   SFRSYM    DATA     BYTE      SCON
      000000F1H   SFRSYM    DATA     BYTE      CANICR
      00000087H   SFRSYM    DATA     BYTE      PCON
      000000BCH   SFRSYM    DATA     BYTE      ADC_CONTR
      000000E7H   SFRSYM    DATA     BYTE      CMPCR2
L251 LINKER/LOCATER V4.66.93.0                                                        03/12/2024  22:09:15  PAGE 115


      000000E6H   SFRSYM    DATA     BYTE      CMPCR1
      000000B8H   SFRSYM    DATA     BYTE      IP
      0000008FH   SFRSYM    DATA     BYTE      INTCLKO
      000000EEH   SFRSYM    DATA     BYTE      IP3H
      000000B6H   SFRSYM    DATA     BYTE      IP2H
      000000A8H   SFRSYM    DATA     BYTE      IE
      000000BBH   SFRSYM    DATA     BYTE      P_SW3
      000000BAH   SFRSYM    DATA     BYTE      P_SW2
      000000A2H   SFRSYM    DATA     BYTE      P_SW1
      000000CEH   SFRSYM    DATA     BYTE      SPCTL
      000000F8H   SFRSYM    DATA     BYTE      P7
      000000E8H   SFRSYM    DATA     BYTE      P6
      000000C8H   SFRSYM    DATA     BYTE      P5
      000000C0H   SFRSYM    DATA     BYTE      P4
      000000B0H   SFRSYM    DATA     BYTE      P3
      000000A0H   SFRSYM    DATA     BYTE      P2
      00000090H   SFRSYM    DATA     BYTE      P1
      00000080H   SFRSYM    DATA     BYTE      P0
      0000002CH   SYMBOL    EDATA    ---       seekfree_assistant_fifo
      0000006BH   SYMBOL    EDATA    ---       seekfree_assistant_buffer
      00000BC3H   SYMBOL    EDATA    ---       buffer
      00000BC7H   SYMBOL    EDATA    DWORD     length
      00000BCBH   SYMBOL    EDATA    BYTE      temp_sum
      0000074EH   SYMBOL    EDATA    ---       seekfree_assistant_oscilloscope
      00000752H   SYMBOL    EDATA    BYTE      packet_size
      00000753H   SYMBOL    EDATA    BYTE      i
      00000754H   SYMBOL    EDATA    ---       temp_oscilloscope
      00000277H   SYMBOL    EDATA    BYTE      temp_sum
      00000278H   SYMBOL    EDATA    DWORD     read_length
      0000027CH   SYMBOL    EDATA    ---       receive_packet
      00000280H   SYMBOL    EDATA    ---       temp_buffer
      00000300H   SYMBOL    EDATA    DWORD     i

      ---         MODULE    ---      ---       seekfree_assistant_inface
      00000D75H   PUBLIC    EDATA    ---       seekfree_assistant_receive
      00000D77H   PUBLIC    EDATA    ---       seekfree_assistant_transfer
      000000D0H   SFRSYM    DATA     BYTE      PSW
      0000009DH   SFRSYM    DATA     BYTE      IRCBAND
      00000097H   SFRSYM    DATA     BYTE      AUXR2
      000000EFH   SFRSYM    DATA     BYTE      AUXINTIF
      000000FDH   SFRSYM    DATA     BYTE      S4CON
      000000ACH   SFRSYM    DATA     BYTE      S3CON
      0000009AH   SFRSYM    DATA     BYTE      S2CON
      000000B7H   SFRSYM    DATA     BYTE      IPH
      000000CDH   SFRSYM    DATA     BYTE      SPSTAT
      000000DDH   SFRSYM    DATA     BYTE      T4T3M
      000000C1H   SFRSYM    DATA     BYTE      WDT_CONTR
      000000DFH   SFRSYM    DATA     BYTE      IP3
      000000F4H   SFRSYM    DATA     BYTE      USBCON
      000000B5H   SFRSYM    DATA     BYTE      IP2
      000000FFH   SFRSYM    DATA     BYTE      RSTCFG
      000000F9H   SFRSYM    DATA     BYTE      LINICR
      0000008EH   SFRSYM    DATA     BYTE      AUXR
      000000AFH   SFRSYM    DATA     BYTE      IE2
      00000088H   SFRSYM    DATA     BYTE      TCON
      00000098H   SFRSYM    DATA     BYTE      SCON
      000000F1H   SFRSYM    DATA     BYTE      CANICR
      00000087H   SFRSYM    DATA     BYTE      PCON
      000000BCH   SFRSYM    DATA     BYTE      ADC_CONTR
      000000E7H   SFRSYM    DATA     BYTE      CMPCR2
      000000E6H   SFRSYM    DATA     BYTE      CMPCR1
      000000B8H   SFRSYM    DATA     BYTE      IP
      0000008FH   SFRSYM    DATA     BYTE      INTCLKO
      000000EEH   SFRSYM    DATA     BYTE      IP3H
      000000B6H   SFRSYM    DATA     BYTE      IP2H
L251 LINKER/LOCATER V4.66.93.0                                                        03/12/2024  22:09:15  PAGE 116


      000000A8H   SFRSYM    DATA     BYTE      IE
      000000BBH   SFRSYM    DATA     BYTE      P_SW3
      000000BAH   SFRSYM    DATA     BYTE      P_SW2
      000000A2H   SFRSYM    DATA     BYTE      P_SW1
      000000CEH   SFRSYM    DATA     BYTE      SPCTL
      000000F8H   SFRSYM    DATA     BYTE      P7
      000000E8H   SFRSYM    DATA     BYTE      P6
      000000C8H   SFRSYM    DATA     BYTE      P5
      000000C0H   SFRSYM    DATA     BYTE      P4
      000000B0H   SFRSYM    DATA     BYTE      P3
      000000A0H   SFRSYM    DATA     BYTE      P2
      00000090H   SFRSYM    DATA     BYTE      P1
      00000080H   SFRSYM    DATA     BYTE      P0

      ---         MODULE    ---      ---       SEEKFREE_CONFIG
      00FF00A6H   PUBLIC    CODE     ---       dl1b_default_configuration
      00FF012DH   PUBLIC    CODE     ---       imu660ra_config_file

      ---         MODULE    ---      ---       ?C?FPADD
      00FF2F3BH   PUBLIC    CODE     ---       ?C?FPADD
      00FF2F38H   PUBLIC    CODE     ---       ?C?FPSUB

      ---         MODULE    ---      ---       ?C?FPMUL
      00FF2FF3H   PUBLIC    CODE     ---       ?C?FPMUL

      ---         MODULE    ---      ---       ?C?FPDIV
      00FF3093H   PUBLIC    CODE     ---       ?C?FPDIV

      ---         MODULE    ---      ---       ?C?FPCMP
      00FF3116H   PUBLIC    CODE     ---       ?C?FPCMP
      00FF3114H   PUBLIC    CODE     ---       ?C?FPCMP3

      ---         MODULE    ---      ---       ?C?FCAST
      00FF3164H   PUBLIC    CODE     NEAR LAB  ?C?FCASTC
      00FF315FH   PUBLIC    CODE     NEAR LAB  ?C?FCASTI
      00FF315AH   PUBLIC    CODE     NEAR LAB  ?C?FCASTL

      ---         MODULE    ---      ---       ?C?CASTF
      00FF3197H   PUBLIC    CODE     NEAR LAB  ?C?CASTF

      ---         MODULE    ---      ---       PRINTF
      00FF31D4H   PUBLIC    CODE     NEAR LAB  PRINTF

      ---         MODULE    ---      ---       SQRT?_
      00FF3200H   PUBLIC    CODE     ---       SQRT?_

      ---         MODULE    ---      ---       ?C?FPGETOPN
      00FF3290H   PUBLIC    CODE     ---       ?C?FPGETOPN2
      00FF32CDH   PUBLIC    CODE     ---       ?C?FPNANRESULT
      00FF32D5H   PUBLIC    CODE     ---       ?C?FPOVERFLOW
      00FF32A9H   PUBLIC    CODE     ---       ?C?FPRESULT
      00FF32BFH   PUBLIC    CODE     ---       ?C?FPRESULT2
      00FF32D2H   PUBLIC    CODE     ---       ?C?FPUNDERFLOW

      ---         MODULE    ---      ---       ?C?PRNFMT
      00FF330EH   PUBLIC    CODE     ---       ?C?PRNFMT

      ---         MODULE    ---      ---       ?C?FPCONVERT
      00FF372BH   PUBLIC    CODE     ---       ?C?FPCONVERT
      00FF37E3H   PUBLIC    CODE     ---       ?C?FPROUND

      ---         MODULE    ---      ---       ?C?FTNPWR
      00FF3856H   PUBLIC    CODE     ---       ?C?FTNPWR

      ---         MODULE    ---      ---       ?C_START
L251 LINKER/LOCATER V4.66.93.0                                                        03/12/2024  22:09:15  PAGE 117


      00FF0000H   PUBLIC    CODE     ---       ?C?STARTUP
      00FF0000H   PUBLIC    CODE     ---       ?C_STARTUP

      ---         MODULE    ---      ---       ?C?INITEDATA
      00FF8A26H   PUBLIC    CODE     ---       ?C?INITEDATA

      ---         MODULE    ---      ---       ?C?SIDIV
      00FF388DH   PUBLIC    CODE     ---       ?C?SIDIV

      ---         MODULE    ---      ---       ?C?LMUL
      00FF38BFH   PUBLIC    CODE     ---       ?C?LMUL

      ---         MODULE    ---      ---       ?C?LIMUL
      00FF38D0H   PUBLIC    CODE     ---       ?C?LIMUL

      ---         MODULE    ---      ---       ?C?ULDIV
      00FF38DBH   PUBLIC    CODE     NEAR LAB  ?C?ULDIV
      00FF38D9H   PUBLIC    CODE     NEAR LAB  ?C?ULIDIV

      ---         MODULE    ---      ---       ?C?SLDIV
      00FF392CH   PUBLIC    CODE     NEAR LAB  ?C?SLDIV

      ---         MODULE    ---      ---       ?C?BMOVENP
      00FF3962H   PUBLIC    CODE     ---       ?C?BMOVENP
      00FF3960H   PUBLIC    CODE     ---       ?C?BMOVENP8

      ---         MODULE    ---      ---       memcpy
      00FF8CA5H   PUBLIC    CODE     ---       memcpy?_

      ---         MODULE    ---      ---       memset

      ---         MODULE    ---      ---       ?C?INITEDATA_END
      00FF91A3H   PUBLIC    HCONST   WORD      ?C?INITEDATA_END

Program Size: data=8.0 edata+hdata=3843 xdata=0 const=818 code=36780
L251 RUN COMPLETE.  0 WARNING(S),  0 ERROR(S)
